     1 00000000                                 [FORMAT "WCOFF"]
     2 00000000                                 [INSTRSET "i486p"]
     3 00000000                                 [OPTIMIZE 1]
     4 00000000                                 [OPTION 1]
     5 00000000                                 [BITS 32]
     6 00000000                                 	EXTERN	_task_now
     7 00000000                                 	EXTERN	_memman_alloc_4k
     8 00000000                                 	EXTERN	_timer_alloc
     9 00000000                                 	EXTERN	_timer_init
    10 00000000                                 	EXTERN	_timer_settime
    11 00000000                                 	EXTERN	_file_readfat
    12 00000000                                 	EXTERN	_io_cli
    13 00000000                                 	EXTERN	_fifo32_status
    14 00000000                                 	EXTERN	_fifo32_get
    15 00000000                                 	EXTERN	_io_sti
    16 00000000                                 	EXTERN	_boxfill8
    17 00000000                                 	EXTERN	_sheet_refresh
    18 00000000                                 	EXTERN	_task_sleep
    19 00000000                                 	EXTERN	_putfonts8_asc_sht
    20 00000000                                 	EXTERN	_memman_total
    21 00000000                                 	EXTERN	_sprintf
    22 00000000                                 	EXTERN	_file_search
    23 00000000                                 	EXTERN	_file_loadfile
    24 00000000                                 	EXTERN	_memman_free_4k
    25 00000000                                 	EXTERN	_set_segmdesc
    26 00000000                                 	EXTERN	_start_app
    27 00000000                                 	EXTERN	_timer_cancelall
    28 00000000                                 	EXTERN	_sheet_free
    29 00000000                                 	EXTERN	_io_in8
    30 00000000                                 	EXTERN	_io_out8
    31 00000000                                 	EXTERN	_timer_free
    32 00000000                                 	EXTERN	_memman_free
    33 00000000                                 	EXTERN	_memman_alloc
    34 00000000                                 	EXTERN	_memman_init
    35 00000000                                 	EXTERN	_putfonts8_asc
    36 00000000                                 	EXTERN	_sheet_alloc
    37 00000000                                 	EXTERN	_sheet_setbuf
    38 00000000                                 	EXTERN	_make_window
    39 00000000                                 	EXTERN	_sheet_slide
    40 00000000                                 	EXTERN	_sheet_updown
    41 00000000                                 [FILE "console.c"]
    42                                          [SECTION .text]
    43 00000000                                 	GLOBAL	_console_task
    44 00000000                                 _console_task:
    45 00000000 55                              	PUSH	EBP
    46 00000001 89 E5                           	MOV	EBP,ESP
    47 00000003 57                              	PUSH	EDI
    48 00000004 56                              	PUSH	ESI
    49 00000005 53                              	PUSH	EBX
    50 00000006 8D 5D B4                        	LEA	EBX,DWORD [-76+EBP]
    51 00000009 83 EC 4C                        	SUB	ESP,76
    52 0000000C 8B 7D 08                        	MOV	EDI,DWORD [8+EBP]
    53 0000000F E8 [00000000]                   	CALL	_task_now
    54 00000014 68 00002D00                     	PUSH	11520
    55 00000019 68 003C0000                     	PUSH	3932160
    56 0000001E 89 45 B0                        	MOV	DWORD [-80+EBP],EAX
    57 00000021 E8 [00000000]                   	CALL	_memman_alloc_4k
    58 00000026 89 7D B4                        	MOV	DWORD [-76+EBP],EDI
    59 00000029 C7 45 B8 00000008               	MOV	DWORD [-72+EBP],8
    60 00000030 89 45 AC                        	MOV	DWORD [-84+EBP],EAX
    61 00000033 8B 45 B0                        	MOV	EAX,DWORD [-80+EBP]
    62 00000036 C7 45 BC 0000001C               	MOV	DWORD [-68+EBP],28
    63 0000003D 89 98 00000094                  	MOV	DWORD [148+EAX],EBX
    64 00000043 C7 45 C0 FFFFFFFF               	MOV	DWORD [-64+EBP],-1
    65 0000004A E8 [00000000]                   	CALL	_timer_alloc
    66 0000004F 8B 55 B0                        	MOV	EDX,DWORD [-80+EBP]
    67 00000052 6A 01                           	PUSH	1
    68 00000054 83 C2 10                        	ADD	EDX,16
    69 00000057 52                              	PUSH	EDX
    70 00000058 89 45 C4                        	MOV	DWORD [-60+EBP],EAX
    71 0000005B 50                              	PUSH	EAX
    72 0000005C E8 [00000000]                   	CALL	_timer_init
    73 00000061 6A 32                           	PUSH	50
    74 00000063 FF 75 C4                        	PUSH	DWORD [-60+EBP]
    75 00000066 E8 [00000000]                   	CALL	_timer_settime
    76 0000006B 68 00100200                     	PUSH	1049088
    77 00000070 FF 75 AC                        	PUSH	DWORD [-84+EBP]
    78 00000073 E8 [00000000]                   	CALL	_file_readfat
    79 00000078 83 C4 24                        	ADD	ESP,36
    80 0000007B 6A 01                           	PUSH	1
    81 0000007D 6A 3E                           	PUSH	62
    82 0000007F 53                              	PUSH	EBX
    83 00000080 E8 000001DC                     	CALL	_cons_putchar
    84 00000085 83 C4 0C                        	ADD	ESP,12
    85 00000088                                 L2:
    86 00000088 E8 [00000000]                   	CALL	_io_cli
    87 0000008D 8B 5D B0                        	MOV	EBX,DWORD [-80+EBP]
    88 00000090 83 C3 10                        	ADD	EBX,16
    89 00000093 53                              	PUSH	EBX
    90 00000094 E8 [00000000]                   	CALL	_fifo32_status
    91 00000099 5E                              	POP	ESI
    92 0000009A 85 C0                           	TEST	EAX,EAX
    93 0000009C 0F 84 000001AC                  	JE	L24
    94 000000A2 53                              	PUSH	EBX
    95 000000A3 E8 [00000000]                   	CALL	_fifo32_get
    96 000000A8 89 C6                           	MOV	ESI,EAX
    97 000000AA E8 [00000000]                   	CALL	_io_sti
    98 000000AF 59                              	POP	ECX
    99 000000B0 83 FE 01                        	CMP	ESI,1
   100 000000B3 0F 8E 00000148                  	JLE	L25
   101 000000B9                                 L7:
   102 000000B9 83 FE 02                        	CMP	ESI,2
   103 000000BC 0F 84 00000133                  	JE	L26
   104 000000C2                                 L12:
   105 000000C2 83 FE 03                        	CMP	ESI,3
   106 000000C5 0F 84 000000FF                  	JE	L27
   107 000000CB                                 L13:
   108 000000CB 8D 8E FFFFFF00                  	LEA	ECX,DWORD [-256+ESI]
   109 000000D1 89 4D A8                        	MOV	DWORD [-88+EBP],ECX
   110 000000D4 81 F9 000000FF                  	CMP	ECX,255
   111 000000DA 77 46                           	JA	L14
   112 000000DC 81 FE 00000108                  	CMP	ESI,264
   113 000000E2 0F 84 000000C2                  	JE	L28
   114 000000E8 81 FE 0000010A                  	CMP	ESI,266
   115 000000EE 74 78                           	JE	L29
   116 000000F0 8B 47 04                        	MOV	EAX,DWORD [4+EDI]
   117 000000F3 8B 4D B8                        	MOV	ECX,DWORD [-72+EBP]
   118 000000F6 83 E8 18                        	SUB	EAX,24
   119 000000F9 39 C1                           	CMP	ECX,EAX
   120 000000FB 7D 25                           	JGE	L14
   121 000000FD 89 C8                           	MOV	EAX,ECX
   122 000000FF BA 00000008                     	MOV	EDX,8
   123 00000104 89 D3                           	MOV	EBX,EDX
   124 00000106 6A 01                           	PUSH	1
   125 00000108 99                              	CDQ
   126 00000109 F7 FB                           	IDIV	EBX
   127 0000010B 89 C1                           	MOV	ECX,EAX
   128 0000010D 89 F0                           	MOV	EAX,ESI
   129 0000010F 88 44 0D D2                     	MOV	BYTE [-46+EBP+ECX*1],AL
   130 00000113 8D 45 B4                        	LEA	EAX,DWORD [-76+EBP]
   131 00000116 FF 75 A8                        	PUSH	DWORD [-88+EBP]
   132 00000119 50                              	PUSH	EAX
   133 0000011A                                 L22:
   134 0000011A E8 00000142                     	CALL	_cons_putchar
   135 0000011F                                 L23:
   136 0000011F 83 C4 0C                        	ADD	ESP,12
   137 00000122                                 L14:
   138 00000122 83 7D C0 00                     	CMP	DWORD [-64+EBP],0
   139 00000126 78 22                           	JS	L21
   140 00000128 8B 4D BC                        	MOV	ECX,DWORD [-68+EBP]
   141 0000012B 8B 55 B8                        	MOV	EDX,DWORD [-72+EBP]
   142 0000012E 8D 41 0F                        	LEA	EAX,DWORD [15+ECX]
   143 00000131 50                              	PUSH	EAX
   144 00000132 8D 42 07                        	LEA	EAX,DWORD [7+EDX]
   145 00000135 50                              	PUSH	EAX
   146 00000136 51                              	PUSH	ECX
   147 00000137 52                              	PUSH	EDX
   148 00000138 0F B6 45 C0                     	MOVZX	EAX,BYTE [-64+EBP]
   149 0000013C 50                              	PUSH	EAX
   150 0000013D FF 77 04                        	PUSH	DWORD [4+EDI]
   151 00000140 FF 37                           	PUSH	DWORD [EDI]
   152 00000142 E8 [00000000]                   	CALL	_boxfill8
   153 00000147 83 C4 1C                        	ADD	ESP,28
   154 0000014A                                 L21:
   155 0000014A 8B 4D BC                        	MOV	ECX,DWORD [-68+EBP]
   156 0000014D 8B 55 B8                        	MOV	EDX,DWORD [-72+EBP]
   157 00000150 8D 41 10                        	LEA	EAX,DWORD [16+ECX]
   158 00000153 50                              	PUSH	EAX
   159 00000154 8D 42 08                        	LEA	EAX,DWORD [8+EDX]
   160 00000157 50                              	PUSH	EAX
   161 00000158 51                              	PUSH	ECX
   162 00000159 52                              	PUSH	EDX
   163 0000015A 57                              	PUSH	EDI
   164 0000015B E8 [00000000]                   	CALL	_sheet_refresh
   165 00000160 83 C4 14                        	ADD	ESP,20
   166 00000163 E9 FFFFFF20                     	JMP	L2
   167 00000168                                 L29:
   168 00000168 6A 00                           	PUSH	0
   169 0000016A 8D 5D B4                        	LEA	EBX,DWORD [-76+EBP]
   170 0000016D 6A 20                           	PUSH	32
   171 0000016F 53                              	PUSH	EBX
   172 00000170 E8 000000EC                     	CALL	_cons_putchar
   173 00000175 53                              	PUSH	EBX
   174 00000176 8B 45 B8                        	MOV	EAX,DWORD [-72+EBP]
   175 00000179 BA 00000008                     	MOV	EDX,8
   176 0000017E 89 D1                           	MOV	ECX,EDX
   177 00000180 99                              	CDQ
   178 00000181 F7 F9                           	IDIV	ECX
   179 00000183 C6 44 05 D2 00                  	MOV	BYTE [-46+EBP+EAX*1],0
   180 00000188 E8 000001A1                     	CALL	_cons_newline
   181 0000018D 8D 45 D4                        	LEA	EAX,DWORD [-44+EBP]
   182 00000190 FF 75 0C                        	PUSH	DWORD [12+EBP]
   183 00000193 FF 75 AC                        	PUSH	DWORD [-84+EBP]
   184 00000196 53                              	PUSH	EBX
   185 00000197 50                              	PUSH	EAX
   186 00000198 E8 000002DE                     	CALL	_cons_runcmd
   187 0000019D 83 C4 20                        	ADD	ESP,32
   188 000001A0 6A 01                           	PUSH	1
   189 000001A2 6A 3E                           	PUSH	62
   190 000001A4 53                              	PUSH	EBX
   191 000001A5 E9 FFFFFF70                     	JMP	L22
   192 000001AA                                 L28:
   193 000001AA 83 7D B8 10                     	CMP	DWORD [-72+EBP],16
   194 000001AE 0F 8E FFFFFF6E                  	JLE	L14
   195 000001B4 6A 00                           	PUSH	0
   196 000001B6 8D 45 B4                        	LEA	EAX,DWORD [-76+EBP]
   197 000001B9 6A 20                           	PUSH	32
   198 000001BB 50                              	PUSH	EAX
   199 000001BC E8 000000A0                     	CALL	_cons_putchar
   200 000001C1 83 6D B8 08                     	SUB	DWORD [-72+EBP],8
   201 000001C5 E9 FFFFFF55                     	JMP	L23
   202 000001CA                                 L27:
   203 000001CA 8B 4D BC                        	MOV	ECX,DWORD [-68+EBP]
   204 000001CD 8B 55 B8                        	MOV	EDX,DWORD [-72+EBP]
   205 000001D0 8D 41 0F                        	LEA	EAX,DWORD [15+ECX]
   206 000001D3 50                              	PUSH	EAX
   207 000001D4 8D 42 07                        	LEA	EAX,DWORD [7+EDX]
   208 000001D7 50                              	PUSH	EAX
   209 000001D8 51                              	PUSH	ECX
   210 000001D9 52                              	PUSH	EDX
   211 000001DA 6A 00                           	PUSH	0
   212 000001DC FF 77 04                        	PUSH	DWORD [4+EDI]
   213 000001DF FF 37                           	PUSH	DWORD [EDI]
   214 000001E1 E8 [00000000]                   	CALL	_boxfill8
   215 000001E6 83 C4 1C                        	ADD	ESP,28
   216 000001E9 C7 45 C0 FFFFFFFF               	MOV	DWORD [-64+EBP],-1
   217 000001F0 E9 FFFFFED6                     	JMP	L13
   218 000001F5                                 L26:
   219 000001F5 C7 45 C0 00000007               	MOV	DWORD [-64+EBP],7
   220 000001FC E9 FFFFFEC1                     	JMP	L12
   221 00000201                                 L25:
   222 00000201 85 F6                           	TEST	ESI,ESI
   223 00000203 74 2C                           	JE	L8
   224 00000205 6A 00                           	PUSH	0
   225 00000207 53                              	PUSH	EBX
   226 00000208 FF 75 C4                        	PUSH	DWORD [-60+EBP]
   227 0000020B E8 [00000000]                   	CALL	_timer_init
   228 00000210 83 C4 0C                        	ADD	ESP,12
   229 00000213 83 7D C0 00                     	CMP	DWORD [-64+EBP],0
   230 00000217 78 07                           	JS	L10
   231 00000219 C7 45 C0 00000007               	MOV	DWORD [-64+EBP],7
   232 00000220                                 L10:
   233 00000220 6A 32                           	PUSH	50
   234 00000222 FF 75 C4                        	PUSH	DWORD [-60+EBP]
   235 00000225 E8 [00000000]                   	CALL	_timer_settime
   236 0000022A 58                              	POP	EAX
   237 0000022B 5A                              	POP	EDX
   238 0000022C E9 FFFFFE88                     	JMP	L7
   239 00000231                                 L8:
   240 00000231 6A 01                           	PUSH	1
   241 00000233 53                              	PUSH	EBX
   242 00000234 FF 75 C4                        	PUSH	DWORD [-60+EBP]
   243 00000237 E8 [00000000]                   	CALL	_timer_init
   244 0000023C 83 C4 0C                        	ADD	ESP,12
   245 0000023F 83 7D C0 00                     	CMP	DWORD [-64+EBP],0
   246 00000243 78 DB                           	JS	L10
   247 00000245 C7 45 C0 00000000               	MOV	DWORD [-64+EBP],0
   248 0000024C EB D2                           	JMP	L10
   249 0000024E                                 L24:
   250 0000024E FF 75 B0                        	PUSH	DWORD [-80+EBP]
   251 00000251 E8 [00000000]                   	CALL	_task_sleep
   252 00000256 E8 [00000000]                   	CALL	_io_sti
   253 0000025B 5B                              	POP	EBX
   254 0000025C E9 FFFFFE27                     	JMP	L2
   255                                          [SECTION .data]
   256 00000000                                 LC0:
   257 00000000 20 00                           	DB	" ",0x00
   258                                          [SECTION .text]
   259 00000261                                 	GLOBAL	_cons_putchar
   260 00000261                                 _cons_putchar:
   261 00000261 55                              	PUSH	EBP
   262 00000262 89 E5                           	MOV	EBP,ESP
   263 00000264 53                              	PUSH	EBX
   264 00000265 50                              	PUSH	EAX
   265 00000266 8A 45 10                        	MOV	AL,BYTE [16+EBP]
   266 00000269 8B 5D 08                        	MOV	EBX,DWORD [8+EBP]
   267 0000026C 88 45 F9                        	MOV	BYTE [-7+EBP],AL
   268 0000026F 8B 45 0C                        	MOV	EAX,DWORD [12+EBP]
   269 00000272 88 45 FA                        	MOV	BYTE [-6+EBP],AL
   270 00000275 C6 45 FB 00                     	MOV	BYTE [-5+EBP],0
   271 00000279 8B 03                           	MOV	EAX,DWORD [EBX]
   272 0000027B 8B 40 04                        	MOV	EAX,DWORD [4+EAX]
   273 0000027E 83 E8 18                        	SUB	EAX,24
   274 00000281 39 43 04                        	CMP	DWORD [4+EBX],EAX
   275 00000284 0F 8D 00000098                  	JGE	L46
   276 0000028A                                 L31:
   277 0000028A 8A 45 FA                        	MOV	AL,BYTE [-6+EBP]
   278 0000028D 3C 09                           	CMP	AL,9
   279 0000028F 74 4B                           	JE	L33
   280 00000291 3C 0A                           	CMP	AL,10
   281 00000293 74 3E                           	JE	L45
   282 00000295 3C 0D                           	CMP	AL,13
   283 00000297 74 35                           	JE	L30
   284 00000299 6A 01                           	PUSH	1
   285 0000029B 8D 45 FA                        	LEA	EAX,DWORD [-6+EBP]
   286 0000029E 50                              	PUSH	EAX
   287 0000029F 6A 00                           	PUSH	0
   288 000002A1 6A 07                           	PUSH	7
   289 000002A3 FF 73 08                        	PUSH	DWORD [8+EBX]
   290 000002A6 FF 73 04                        	PUSH	DWORD [4+EBX]
   291 000002A9 FF 33                           	PUSH	DWORD [EBX]
   292 000002AB E8 [00000000]                   	CALL	_putfonts8_asc_sht
   293 000002B0 83 C4 1C                        	ADD	ESP,28
   294 000002B3 80 7D F9 00                     	CMP	BYTE [-7+EBP],0
   295 000002B7 74 15                           	JE	L30
   296 000002B9 8B 43 04                        	MOV	EAX,DWORD [4+EBX]
   297 000002BC 8B 13                           	MOV	EDX,DWORD [EBX]
   298 000002BE 83 C0 08                        	ADD	EAX,8
   299 000002C1 89 43 04                        	MOV	DWORD [4+EBX],EAX
   300 000002C4 8B 52 04                        	MOV	EDX,DWORD [4+EDX]
   301 000002C7 83 EA 18                        	SUB	EDX,24
   302 000002CA 39 D0                           	CMP	EAX,EDX
   303 000002CC 7D 05                           	JGE	L45
   304 000002CE                                 L30:
   305 000002CE 8B 5D FC                        	MOV	EBX,DWORD [-4+EBP]
   306 000002D1 C9                              	LEAVE
   307 000002D2 C3                              	RET
   308 000002D3                                 L45:
   309 000002D3 53                              	PUSH	EBX
   310 000002D4 E8 00000055                     	CALL	_cons_newline
   311 000002D9 58                              	POP	EAX
   312 000002DA EB F2                           	JMP	L30
   313 000002DC                                 L33:
   314 000002DC 6A 01                           	PUSH	1
   315 000002DE 68 [00000000]                   	PUSH	LC0
   316 000002E3 6A 00                           	PUSH	0
   317 000002E5 6A 07                           	PUSH	7
   318 000002E7 FF 73 08                        	PUSH	DWORD [8+EBX]
   319 000002EA FF 73 04                        	PUSH	DWORD [4+EBX]
   320 000002ED FF 33                           	PUSH	DWORD [EBX]
   321 000002EF E8 [00000000]                   	CALL	_putfonts8_asc_sht
   322 000002F4 83 C4 1C                        	ADD	ESP,28
   323 000002F7 8B 43 04                        	MOV	EAX,DWORD [4+EBX]
   324 000002FA 8B 13                           	MOV	EDX,DWORD [EBX]
   325 000002FC 83 C0 08                        	ADD	EAX,8
   326 000002FF 89 43 04                        	MOV	DWORD [4+EBX],EAX
   327 00000302 8B 52 04                        	MOV	EDX,DWORD [4+EDX]
   328 00000305 83 EA 18                        	SUB	EDX,24
   329 00000308 39 D0                           	CMP	EAX,EDX
   330 0000030A 7D 0D                           	JGE	L47
   331 0000030C                                 L36:
   332 0000030C 8B 43 04                        	MOV	EAX,DWORD [4+EBX]
   333 0000030F 83 E8 08                        	SUB	EAX,8
   334 00000312 83 E0 1F                        	AND	EAX,31
   335 00000315 75 C5                           	JNE	L33
   336 00000317 EB B5                           	JMP	L30
   337 00000319                                 L47:
   338 00000319 53                              	PUSH	EBX
   339 0000031A E8 0000000F                     	CALL	_cons_newline
   340 0000031F 58                              	POP	EAX
   341 00000320 EB EA                           	JMP	L36
   342 00000322                                 L46:
   343 00000322 53                              	PUSH	EBX
   344 00000323 E8 00000006                     	CALL	_cons_newline
   345 00000328 58                              	POP	EAX
   346 00000329 E9 FFFFFF5C                     	JMP	L31
   347 0000032E                                 	GLOBAL	_cons_newline
   348 0000032E                                 _cons_newline:
   349 0000032E 55                              	PUSH	EBP
   350 0000032F 89 E5                           	MOV	EBP,ESP
   351 00000331 57                              	PUSH	EDI
   352 00000332 56                              	PUSH	ESI
   353 00000333 53                              	PUSH	EBX
   354 00000334 50                              	PUSH	EAX
   355 00000335 8B 45 08                        	MOV	EAX,DWORD [8+EBP]
   356 00000338 8B 30                           	MOV	ESI,DWORD [EAX]
   357 0000033A 8B 40 08                        	MOV	EAX,DWORD [8+EAX]
   358 0000033D 8B 56 08                        	MOV	EDX,DWORD [8+ESI]
   359 00000340 83 EA 21                        	SUB	EDX,33
   360 00000343 39 D0                           	CMP	EAX,EDX
   361 00000345 7D 1B                           	JGE	L49
   362 00000347 8B 55 08                        	MOV	EDX,DWORD [8+EBP]
   363 0000034A 83 C0 10                        	ADD	EAX,16
   364 0000034D 89 42 08                        	MOV	DWORD [8+EDX],EAX
   365 00000350                                 L50:
   366 00000350 8B 45 08                        	MOV	EAX,DWORD [8+EBP]
   367 00000353 C7 40 04 00000008               	MOV	DWORD [4+EAX],8
   368 0000035A 8D 65 F4                        	LEA	ESP,DWORD [-12+EBP]
   369 0000035D 5B                              	POP	EBX
   370 0000035E 5E                              	POP	ESI
   371 0000035F 5F                              	POP	EDI
   372 00000360 5D                              	POP	EBP
   373 00000361 C3                              	RET
   374 00000362                                 L49:
   375 00000362 C7 45 F0 0000001C               	MOV	DWORD [-16+EBP],28
   376 00000369 39 55 F0                        	CMP	DWORD [-16+EBP],EDX
   377 0000036C 7D 45                           	JGE	L72
   378 0000036E                                 L60:
   379 0000036E 8B 5E 04                        	MOV	EBX,DWORD [4+ESI]
   380 00000371 BF 00000008                     	MOV	EDI,8
   381 00000376 8D 43 F8                        	LEA	EAX,DWORD [-8+EBX]
   382 00000379 39 C7                           	CMP	EDI,EAX
   383 0000037B 7D 28                           	JGE	L74
   384 0000037D                                 L59:
   385 0000037D 8B 45 F0                        	MOV	EAX,DWORD [-16+EBP]
   386 00000380 8B 55 F0                        	MOV	EDX,DWORD [-16+EBP]
   387 00000383 83 C0 10                        	ADD	EAX,16
   388 00000386 8B 0E                           	MOV	ECX,DWORD [ESI]
   389 00000388 0F AF C3                        	IMUL	EAX,EBX
   390 0000038B 0F AF D3                        	IMUL	EDX,EBX
   391 0000038E 8D 04 38                        	LEA	EAX,DWORD [EAX+EDI*1]
   392 00000391 8D 14 3A                        	LEA	EDX,DWORD [EDX+EDI*1]
   393 00000394 47                              	INC	EDI
   394 00000395 8A 04 08                        	MOV	AL,BYTE [EAX+ECX*1]
   395 00000398 88 04 0A                        	MOV	BYTE [EDX+ECX*1],AL
   396 0000039B 8B 5E 04                        	MOV	EBX,DWORD [4+ESI]
   397 0000039E 8D 43 F8                        	LEA	EAX,DWORD [-8+EBX]
   398 000003A1 39 C7                           	CMP	EDI,EAX
   399 000003A3 7C D8                           	JL	L59
   400 000003A5                                 L74:
   401 000003A5 8B 46 08                        	MOV	EAX,DWORD [8+ESI]
   402 000003A8 FF 45 F0                        	INC	DWORD [-16+EBP]
   403 000003AB 83 E8 21                        	SUB	EAX,33
   404 000003AE 39 45 F0                        	CMP	DWORD [-16+EBP],EAX
   405 000003B1 7C BB                           	JL	L60
   406 000003B3                                 L72:
   407 000003B3 8B 46 08                        	MOV	EAX,DWORD [8+ESI]
   408 000003B6 8D 48 DF                        	LEA	ECX,DWORD [-33+EAX]
   409 000003B9 83 E8 11                        	SUB	EAX,17
   410 000003BC 89 4D F0                        	MOV	DWORD [-16+EBP],ECX
   411 000003BF 39 C1                           	CMP	ECX,EAX
   412 000003C1 7D 37                           	JGE	L76
   413 000003C3                                 L70:
   414 000003C3 8B 56 04                        	MOV	EDX,DWORD [4+ESI]
   415 000003C6 BF 00000008                     	MOV	EDI,8
   416 000003CB 8D 42 F8                        	LEA	EAX,DWORD [-8+EDX]
   417 000003CE 39 C7                           	CMP	EDI,EAX
   418 000003D0 7D 1A                           	JGE	L78
   419 000003D2                                 L69:
   420 000003D2 8B 45 F0                        	MOV	EAX,DWORD [-16+EBP]
   421 000003D5 0F AF C2                        	IMUL	EAX,EDX
   422 000003D8 8B 16                           	MOV	EDX,DWORD [ESI]
   423 000003DA 8D 04 38                        	LEA	EAX,DWORD [EAX+EDI*1]
   424 000003DD 47                              	INC	EDI
   425 000003DE C6 04 10 00                     	MOV	BYTE [EAX+EDX*1],0
   426 000003E2 8B 56 04                        	MOV	EDX,DWORD [4+ESI]
   427 000003E5 8D 42 F8                        	LEA	EAX,DWORD [-8+EDX]
   428 000003E8 39 C7                           	CMP	EDI,EAX
   429 000003EA 7C E6                           	JL	L69
   430 000003EC                                 L78:
   431 000003EC 8B 46 08                        	MOV	EAX,DWORD [8+ESI]
   432 000003EF FF 45 F0                        	INC	DWORD [-16+EBP]
   433 000003F2 83 E8 11                        	SUB	EAX,17
   434 000003F5 39 45 F0                        	CMP	DWORD [-16+EBP],EAX
   435 000003F8 7C C9                           	JL	L70
   436 000003FA                                 L76:
   437 000003FA 8B 46 08                        	MOV	EAX,DWORD [8+ESI]
   438 000003FD 83 E8 11                        	SUB	EAX,17
   439 00000400 50                              	PUSH	EAX
   440 00000401 8B 46 04                        	MOV	EAX,DWORD [4+ESI]
   441 00000404 83 E8 08                        	SUB	EAX,8
   442 00000407 50                              	PUSH	EAX
   443 00000408 6A 1C                           	PUSH	28
   444 0000040A 6A 08                           	PUSH	8
   445 0000040C 56                              	PUSH	ESI
   446 0000040D E8 [00000000]                   	CALL	_sheet_refresh
   447 00000412 83 C4 14                        	ADD	ESP,20
   448 00000415 E9 FFFFFF36                     	JMP	L50
   449 0000041A                                 	GLOBAL	_cons_putstr0
   450 0000041A                                 _cons_putstr0:
   451 0000041A 55                              	PUSH	EBP
   452 0000041B 89 E5                           	MOV	EBP,ESP
   453 0000041D 56                              	PUSH	ESI
   454 0000041E 53                              	PUSH	EBX
   455 0000041F 8B 5D 0C                        	MOV	EBX,DWORD [12+EBP]
   456 00000422 8B 75 08                        	MOV	ESI,DWORD [8+EBP]
   457 00000425 80 3B 00                        	CMP	BYTE [EBX],0
   458 00000428 75 07                           	JNE	L84
   459 0000042A                                 L86:
   460 0000042A 8D 65 F8                        	LEA	ESP,DWORD [-8+EBP]
   461 0000042D 5B                              	POP	EBX
   462 0000042E 5E                              	POP	ESI
   463 0000042F 5D                              	POP	EBP
   464 00000430 C3                              	RET
   465 00000431                                 L84:
   466 00000431 6A 01                           	PUSH	1
   467 00000433 0F BE 03                        	MOVSX	EAX,BYTE [EBX]
   468 00000436 50                              	PUSH	EAX
   469 00000437 43                              	INC	EBX
   470 00000438 56                              	PUSH	ESI
   471 00000439 E8 FFFFFE23                     	CALL	_cons_putchar
   472 0000043E 83 C4 0C                        	ADD	ESP,12
   473 00000441 80 3B 00                        	CMP	BYTE [EBX],0
   474 00000444 75 EB                           	JNE	L84
   475 00000446 EB E2                           	JMP	L86
   476 00000448                                 	GLOBAL	_cons_putstr1
   477 00000448                                 _cons_putstr1:
   478 00000448 55                              	PUSH	EBP
   479 00000449 89 E5                           	MOV	EBP,ESP
   480 0000044B 57                              	PUSH	EDI
   481 0000044C 56                              	PUSH	ESI
   482 0000044D 53                              	PUSH	EBX
   483 0000044E 8B 75 10                        	MOV	ESI,DWORD [16+EBP]
   484 00000451 31 DB                           	XOR	EBX,EBX
   485 00000453 8B 7D 0C                        	MOV	EDI,DWORD [12+EBP]
   486 00000456 39 F3                           	CMP	EBX,ESI
   487 00000458 7C 08                           	JL	L92
   488 0000045A                                 L94:
   489 0000045A 8D 65 F4                        	LEA	ESP,DWORD [-12+EBP]
   490 0000045D 5B                              	POP	EBX
   491 0000045E 5E                              	POP	ESI
   492 0000045F 5F                              	POP	EDI
   493 00000460 5D                              	POP	EBP
   494 00000461 C3                              	RET
   495 00000462                                 L92:
   496 00000462 6A 01                           	PUSH	1
   497 00000464 0F BE 04 3B                     	MOVSX	EAX,BYTE [EBX+EDI*1]
   498 00000468 50                              	PUSH	EAX
   499 00000469 43                              	INC	EBX
   500 0000046A FF 75 08                        	PUSH	DWORD [8+EBP]
   501 0000046D E8 FFFFFDEF                     	CALL	_cons_putchar
   502 00000472 83 C4 0C                        	ADD	ESP,12
   503 00000475 39 F3                           	CMP	EBX,ESI
   504 00000477 7C E9                           	JL	L92
   505 00000479 EB DF                           	JMP	L94
   506                                          [SECTION .data]
   507 00000002                                 LC1:
   508 00000002 6D 65 6D 00                     	DB	"mem",0x00
   509 00000006                                 LC2:
   510 00000006 63 6C 73 00                     	DB	"cls",0x00
   511 0000000A                                 LC3:
   512 0000000A 6C 73 00                        	DB	"ls",0x00
   513 0000000D                                 LC4:
   514 0000000D 63 61 74 20 00                  	DB	"cat ",0x00
   515 00000012                                 LC5:
   516 00000012 4E 6F 20 53 75 63 68 20 63 6F   	DB	"No Such command.",0x0A,0x0A,0x00
       0000001C 6D 6D 61 6E 64 2E 0A 0A 00 
   517                                          [SECTION .text]
   518 0000047B                                 	GLOBAL	_cons_runcmd
   519 0000047B                                 _cons_runcmd:
   520 0000047B 55                              	PUSH	EBP
   521 0000047C 89 E5                           	MOV	EBP,ESP
   522 0000047E 57                              	PUSH	EDI
   523 0000047F 56                              	PUSH	ESI
   524 00000480 BF [00000002]                   	MOV	EDI,LC1
   525 00000485 53                              	PUSH	EBX
   526 00000486 83 EC 0C                        	SUB	ESP,12
   527 00000489 8B 45 08                        	MOV	EAX,DWORD [8+EBP]
   528 0000048C 8B 4D 10                        	MOV	ECX,DWORD [16+EBP]
   529 0000048F 89 45 E8                        	MOV	DWORD [-24+EBP],EAX
   530 00000492 89 4D F0                        	MOV	DWORD [-16+EBP],ECX
   531 00000495 8B 45 14                        	MOV	EAX,DWORD [20+EBP]
   532 00000498 8B 75 E8                        	MOV	ESI,DWORD [-24+EBP]
   533 0000049B 89 45 EC                        	MOV	DWORD [-20+EBP],EAX
   534 0000049E 8B 5D 0C                        	MOV	EBX,DWORD [12+EBP]
   535 000004A1 B8 00000004                     	MOV	EAX,4
   536 000004A6 FC                              	CLD
   537 000004A7 89 C1                           	MOV	ECX,EAX
   538 000004A9 F3                              	REPE
   539 000004AA A6                              	CMPSB
   540 000004AB 0F 84 000000AD                  	JE	L106
   541 000004B1 B8 00000004                     	MOV	EAX,4
   542 000004B6 8B 75 E8                        	MOV	ESI,DWORD [-24+EBP]
   543 000004B9 FC                              	CLD
   544 000004BA BF [00000006]                   	MOV	EDI,LC2
   545 000004BF 89 C1                           	MOV	ECX,EAX
   546 000004C1 F3                              	REPE
   547 000004C2 A6                              	CMPSB
   548 000004C3 0F 84 00000089                  	JE	L107
   549 000004C9 B8 00000003                     	MOV	EAX,3
   550 000004CE 8B 75 E8                        	MOV	ESI,DWORD [-24+EBP]
   551 000004D1 FC                              	CLD
   552 000004D2 BF [0000000A]                   	MOV	EDI,LC3
   553 000004D7 89 C1                           	MOV	ECX,EAX
   554 000004D9 F3                              	REPE
   555 000004DA A6                              	CMPSB
   556 000004DB 74 66                           	JE	L108
   557 000004DD B8 00000004                     	MOV	EAX,4
   558 000004E2 8B 75 E8                        	MOV	ESI,DWORD [-24+EBP]
   559 000004E5 FC                              	CLD
   560 000004E6 BF [0000000D]                   	MOV	EDI,LC4
   561 000004EB 89 C1                           	MOV	ECX,EAX
   562 000004ED F3                              	REPE
   563 000004EE A6                              	CMPSB
   564 000004EF 74 37                           	JE	L109
   565 000004F1 8B 45 E8                        	MOV	EAX,DWORD [-24+EBP]
   566 000004F4 80 38 00                        	CMP	BYTE [EAX],0
   567 000004F7 75 08                           	JNE	L110
   568 000004F9                                 L95:
   569 000004F9 8D 65 F4                        	LEA	ESP,DWORD [-12+EBP]
   570 000004FC 5B                              	POP	EBX
   571 000004FD 5E                              	POP	ESI
   572 000004FE 5F                              	POP	EDI
   573 000004FF 5D                              	POP	EBP
   574 00000500 C3                              	RET
   575 00000501                                 L110:
   576 00000501 50                              	PUSH	EAX
   577 00000502 FF 75 F0                        	PUSH	DWORD [-16+EBP]
   578 00000505 53                              	PUSH	EBX
   579 00000506 E8 00000239                     	CALL	_cmd_app
   580 0000050B 83 C4 0C                        	ADD	ESP,12
   581 0000050E 85 C0                           	TEST	EAX,EAX
   582 00000510 75 E7                           	JNE	L95
   583 00000512 C7 45 0C [00000012]             	MOV	DWORD [12+EBP],LC5
   584 00000519 89 5D 08                        	MOV	DWORD [8+EBP],EBX
   585 0000051C 8D 65 F4                        	LEA	ESP,DWORD [-12+EBP]
   586 0000051F 5B                              	POP	EBX
   587 00000520 5E                              	POP	ESI
   588 00000521 5F                              	POP	EDI
   589 00000522 5D                              	POP	EBP
   590 00000523 E9 FFFFFEF2                     	JMP	_cons_putstr0
   591 00000528                                 L109:
   592 00000528 8B 45 E8                        	MOV	EAX,DWORD [-24+EBP]
   593 0000052B 8B 4D F0                        	MOV	ECX,DWORD [-16+EBP]
   594 0000052E 89 45 10                        	MOV	DWORD [16+EBP],EAX
   595 00000531 89 4D 0C                        	MOV	DWORD [12+EBP],ECX
   596 00000534 89 5D 08                        	MOV	DWORD [8+EBP],EBX
   597 00000537 8D 65 F4                        	LEA	ESP,DWORD [-12+EBP]
   598 0000053A 5B                              	POP	EBX
   599 0000053B 5E                              	POP	ESI
   600 0000053C 5F                              	POP	EDI
   601 0000053D 5D                              	POP	EBP
   602 0000053E E9 00000171                     	JMP	_cmd_cat
   603 00000543                                 L108:
   604 00000543 89 5D 08                        	MOV	DWORD [8+EBP],EBX
   605 00000546 8D 65 F4                        	LEA	ESP,DWORD [-12+EBP]
   606 00000549 5B                              	POP	EBX
   607 0000054A 5E                              	POP	ESI
   608 0000054B 5F                              	POP	EDI
   609 0000054C 5D                              	POP	EBP
   610 0000054D E9 000000CC                     	JMP	_cmd_ls
   611 00000552                                 L107:
   612 00000552 89 5D 08                        	MOV	DWORD [8+EBP],EBX
   613 00000555 8D 65 F4                        	LEA	ESP,DWORD [-12+EBP]
   614 00000558 5B                              	POP	EBX
   615 00000559 5E                              	POP	ESI
   616 0000055A 5F                              	POP	EDI
   617 0000055B 5D                              	POP	EBP
   618 0000055C EB 4C                           	JMP	_cmd_cls
   619 0000055E                                 L106:
   620 0000055E 8B 45 EC                        	MOV	EAX,DWORD [-20+EBP]
   621 00000561 89 5D 08                        	MOV	DWORD [8+EBP],EBX
   622 00000564 89 45 0C                        	MOV	DWORD [12+EBP],EAX
   623 00000567 8D 65 F4                        	LEA	ESP,DWORD [-12+EBP]
   624 0000056A 5B                              	POP	EBX
   625 0000056B 5E                              	POP	ESI
   626 0000056C 5F                              	POP	EDI
   627 0000056D 5D                              	POP	EBP
   628 0000056E EB 00                           	JMP	_cmd_mem
   629                                          [SECTION .data]
   630 00000025                                 LC6:
   631 00000025 74 6F 74 61 6C 20 20 20 25 64   	DB	"total   %dMB",0x0A,"free %dKB",0x0A,0x0A,0x00
       0000002F 4D 42 0A 66 72 65 65 20 25 64 
       00000039 4B 42 0A 0A 00 
   632                                          [SECTION .text]
   633 00000570                                 	GLOBAL	_cmd_mem
   634 00000570                                 _cmd_mem:
   635 00000570 55                              	PUSH	EBP
   636 00000571 89 E5                           	MOV	EBP,ESP
   637 00000573 53                              	PUSH	EBX
   638 00000574 83 EC 40                        	SUB	ESP,64
   639 00000577 8B 5D 0C                        	MOV	EBX,DWORD [12+EBP]
   640 0000057A C1 EB 14                        	SHR	EBX,20
   641 0000057D 68 003C0000                     	PUSH	3932160
   642 00000582 E8 [00000000]                   	CALL	_memman_total
   643 00000587 C1 E8 0A                        	SHR	EAX,10
   644 0000058A 89 04 24                        	MOV	DWORD [ESP],EAX
   645 0000058D 53                              	PUSH	EBX
   646 0000058E 68 [00000025]                   	PUSH	LC6
   647 00000593 8D 5D BC                        	LEA	EBX,DWORD [-68+EBP]
   648 00000596 53                              	PUSH	EBX
   649 00000597 E8 [00000000]                   	CALL	_sprintf
   650 0000059C 53                              	PUSH	EBX
   651 0000059D FF 75 08                        	PUSH	DWORD [8+EBP]
   652 000005A0 E8 FFFFFE75                     	CALL	_cons_putstr0
   653 000005A5 8B 5D FC                        	MOV	EBX,DWORD [-4+EBP]
   654 000005A8 C9                              	LEAVE
   655 000005A9 C3                              	RET
   656 000005AA                                 	GLOBAL	_cmd_cls
   657 000005AA                                 _cmd_cls:
   658 000005AA 55                              	PUSH	EBP
   659 000005AB 89 E5                           	MOV	EBP,ESP
   660 000005AD 57                              	PUSH	EDI
   661 000005AE 56                              	PUSH	ESI
   662 000005AF BE 0000001C                     	MOV	ESI,28
   663 000005B4 8B 7D 08                        	MOV	EDI,DWORD [8+EBP]
   664 000005B7 53                              	PUSH	EBX
   665 000005B8 8B 0F                           	MOV	ECX,DWORD [EDI]
   666 000005BA 8B 41 08                        	MOV	EAX,DWORD [8+ECX]
   667 000005BD 83 E8 09                        	SUB	EAX,9
   668 000005C0 39 C6                           	CMP	ESI,EAX
   669 000005C2 7D 33                           	JGE	L124
   670 000005C4                                 L122:
   671 000005C4 8B 51 04                        	MOV	EDX,DWORD [4+ECX]
   672 000005C7 BB 00000008                     	MOV	EBX,8
   673 000005CC 8D 42 F8                        	LEA	EAX,DWORD [-8+EDX]
   674 000005CF 39 C3                           	CMP	EBX,EAX
   675 000005D1 7D 19                           	JGE	L126
   676 000005D3                                 L121:
   677 000005D3 89 F0                           	MOV	EAX,ESI
   678 000005D5 0F AF C2                        	IMUL	EAX,EDX
   679 000005D8 8B 11                           	MOV	EDX,DWORD [ECX]
   680 000005DA 8D 04 18                        	LEA	EAX,DWORD [EAX+EBX*1]
   681 000005DD 43                              	INC	EBX
   682 000005DE C6 04 10 00                     	MOV	BYTE [EAX+EDX*1],0
   683 000005E2 8B 51 04                        	MOV	EDX,DWORD [4+ECX]
   684 000005E5 8D 42 F8                        	LEA	EAX,DWORD [-8+EDX]
   685 000005E8 39 C3                           	CMP	EBX,EAX
   686 000005EA 7C E7                           	JL	L121
   687 000005EC                                 L126:
   688 000005EC 8B 41 08                        	MOV	EAX,DWORD [8+ECX]
   689 000005EF 46                              	INC	ESI
   690 000005F0 83 E8 09                        	SUB	EAX,9
   691 000005F3 39 C6                           	CMP	ESI,EAX
   692 000005F5 7C CD                           	JL	L122
   693 000005F7                                 L124:
   694 000005F7 8B 41 08                        	MOV	EAX,DWORD [8+ECX]
   695 000005FA 83 E8 09                        	SUB	EAX,9
   696 000005FD 50                              	PUSH	EAX
   697 000005FE 8B 41 04                        	MOV	EAX,DWORD [4+ECX]
   698 00000601 83 E8 08                        	SUB	EAX,8
   699 00000604 50                              	PUSH	EAX
   700 00000605 6A 1C                           	PUSH	28
   701 00000607 6A 08                           	PUSH	8
   702 00000609 51                              	PUSH	ECX
   703 0000060A E8 [00000000]                   	CALL	_sheet_refresh
   704 0000060F C7 47 08 0000001C               	MOV	DWORD [8+EDI],28
   705 00000616 8D 65 F4                        	LEA	ESP,DWORD [-12+EBP]
   706 00000619 5B                              	POP	EBX
   707 0000061A 5E                              	POP	ESI
   708 0000061B 5F                              	POP	EDI
   709 0000061C 5D                              	POP	EBP
   710 0000061D C3                              	RET
   711                                          [SECTION .data]
   712 0000003E                                 LC7:
   713 0000003E 66 69 6C 65 6E 61 6D 65 2E 65   	DB	"filename.ext   %7d",0x0A,0x00
       00000048 78 74 20 20 20 25 37 64 0A 00 
   714                                          [SECTION .text]
   715 0000061E                                 	GLOBAL	_cmd_ls
   716 0000061E                                 _cmd_ls:
   717 0000061E 55                              	PUSH	EBP
   718 0000061F 89 E5                           	MOV	EBP,ESP
   719 00000621 57                              	PUSH	EDI
   720 00000622 56                              	PUSH	ESI
   721 00000623 31 F6                           	XOR	ESI,ESI
   722 00000625 53                              	PUSH	EBX
   723 00000626 31 DB                           	XOR	EBX,EBX
   724 00000628 83 EC 20                        	SUB	ESP,32
   725 0000062B 8B 7D 08                        	MOV	EDI,DWORD [8+EBP]
   726 0000062E                                 L140:
   727 0000062E 8A 83 00102600                  	MOV	AL,BYTE [1058304+EBX]
   728 00000634 84 C0                           	TEST	AL,AL
   729 00000636 74 19                           	JE	L129
   730 00000638 3C E5                           	CMP	AL,-27
   731 0000063A 74 09                           	JE	L130
   732 0000063C F6 83 0010260B 18               	TEST	BYTE [1058315+EBX],24
   733 00000643 74 1A                           	JE	L144
   734 00000645                                 L130:
   735 00000645 46                              	INC	ESI
   736 00000646 83 C3 20                        	ADD	EBX,32
   737 00000649 81 FE 000000DF                  	CMP	ESI,223
   738 0000064F 7E DD                           	JLE	L140
   739 00000651                                 L129:
   740 00000651 57                              	PUSH	EDI
   741 00000652 E8 FFFFFCD7                     	CALL	_cons_newline
   742 00000657 8D 65 F4                        	LEA	ESP,DWORD [-12+EBP]
   743 0000065A 5B                              	POP	EBX
   744 0000065B 5E                              	POP	ESI
   745 0000065C 5F                              	POP	EDI
   746 0000065D 5D                              	POP	EBP
   747 0000065E C3                              	RET
   748 0000065F                                 L144:
   749 0000065F FF B3 0010261C                  	PUSH	DWORD [1058332+EBX]
   750 00000665 68 [0000003E]                   	PUSH	LC7
   751 0000066A 8D 45 D4                        	LEA	EAX,DWORD [-44+EBP]
   752 0000066D 50                              	PUSH	EAX
   753 0000066E E8 [00000000]                   	CALL	_sprintf
   754 00000673 8D 93 00102600                  	LEA	EDX,DWORD [1058304+EBX]
   755 00000679 31 C9                           	XOR	ECX,ECX
   756 0000067B 83 C4 0C                        	ADD	ESP,12
   757 0000067E                                 L139:
   758 0000067E 8A 02                           	MOV	AL,BYTE [EDX]
   759 00000680 42                              	INC	EDX
   760 00000681 88 44 0D D4                     	MOV	BYTE [-44+EBP+ECX*1],AL
   761 00000685 41                              	INC	ECX
   762 00000686 83 F9 07                        	CMP	ECX,7
   763 00000689 7E F3                           	JLE	L139
   764 0000068B 8A 83 00102608                  	MOV	AL,BYTE [1058312+EBX]
   765 00000691 88 45 DD                        	MOV	BYTE [-35+EBP],AL
   766 00000694 8A 83 00102609                  	MOV	AL,BYTE [1058313+EBX]
   767 0000069A 88 45 DE                        	MOV	BYTE [-34+EBP],AL
   768 0000069D 8A 83 0010260A                  	MOV	AL,BYTE [1058314+EBX]
   769 000006A3 88 45 DF                        	MOV	BYTE [-33+EBP],AL
   770 000006A6 8D 45 D4                        	LEA	EAX,DWORD [-44+EBP]
   771 000006A9 50                              	PUSH	EAX
   772 000006AA 57                              	PUSH	EDI
   773 000006AB E8 FFFFFD6A                     	CALL	_cons_putstr0
   774 000006B0 58                              	POP	EAX
   775 000006B1 5A                              	POP	EDX
   776 000006B2 EB 91                           	JMP	L130
   777                                          [SECTION .data]
   778 00000052                                 LC8:
   779 00000052 46 69 6C 65 20 6E 6F 74 20 66   	DB	"File not found.",0x0A,0x00
       0000005C 6F 75 6E 64 2E 0A 00 
   780                                          [SECTION .text]
   781 000006B4                                 	GLOBAL	_cmd_cat
   782 000006B4                                 _cmd_cat:
   783 000006B4 55                              	PUSH	EBP
   784 000006B5 89 E5                           	MOV	EBP,ESP
   785 000006B7 57                              	PUSH	EDI
   786 000006B8 56                              	PUSH	ESI
   787 000006B9 53                              	PUSH	EBX
   788 000006BA 56                              	PUSH	ESI
   789 000006BB 8B 45 0C                        	MOV	EAX,DWORD [12+EBP]
   790 000006BE 8B 7D 08                        	MOV	EDI,DWORD [8+EBP]
   791 000006C1 89 45 F0                        	MOV	DWORD [-16+EBP],EAX
   792 000006C4 68 000000E0                     	PUSH	224
   793 000006C9 68 00102600                     	PUSH	1058304
   794 000006CE 8B 45 10                        	MOV	EAX,DWORD [16+EBP]
   795 000006D1 83 C0 04                        	ADD	EAX,4
   796 000006D4 50                              	PUSH	EAX
   797 000006D5 E8 [00000000]                   	CALL	_file_search
   798 000006DA 83 C4 0C                        	ADD	ESP,12
   799 000006DD 89 C6                           	MOV	ESI,EAX
   800 000006DF 85 C0                           	TEST	EAX,EAX
   801 000006E1 74 52                           	JE	L146
   802 000006E3 FF 70 1C                        	PUSH	DWORD [28+EAX]
   803 000006E6 68 003C0000                     	PUSH	3932160
   804 000006EB E8 [00000000]                   	CALL	_memman_alloc_4k
   805 000006F0 68 00103E00                     	PUSH	1064448
   806 000006F5 FF 75 F0                        	PUSH	DWORD [-16+EBP]
   807 000006F8 50                              	PUSH	EAX
   808 000006F9 89 C3                           	MOV	EBX,EAX
   809 000006FB FF 76 1C                        	PUSH	DWORD [28+ESI]
   810 000006FE 0F B7 46 1A                     	MOVZX	EAX,WORD [26+ESI]
   811 00000702 50                              	PUSH	EAX
   812 00000703 E8 [00000000]                   	CALL	_file_loadfile
   813 00000708 FF 76 1C                        	PUSH	DWORD [28+ESI]
   814 0000070B 53                              	PUSH	EBX
   815 0000070C 57                              	PUSH	EDI
   816 0000070D E8 FFFFFD36                     	CALL	_cons_putstr1
   817 00000712 83 C4 28                        	ADD	ESP,40
   818 00000715 FF 76 1C                        	PUSH	DWORD [28+ESI]
   819 00000718 53                              	PUSH	EBX
   820 00000719 68 003C0000                     	PUSH	3932160
   821 0000071E E8 [00000000]                   	CALL	_memman_free_4k
   822 00000723 83 C4 0C                        	ADD	ESP,12
   823 00000726                                 L147:
   824 00000726 89 7D 08                        	MOV	DWORD [8+EBP],EDI
   825 00000729 8D 65 F4                        	LEA	ESP,DWORD [-12+EBP]
   826 0000072C 5B                              	POP	EBX
   827 0000072D 5E                              	POP	ESI
   828 0000072E 5F                              	POP	EDI
   829 0000072F 5D                              	POP	EBP
   830 00000730 E9 FFFFFBF9                     	JMP	_cons_newline
   831 00000735                                 L146:
   832 00000735 68 [00000052]                   	PUSH	LC8
   833 0000073A 57                              	PUSH	EDI
   834 0000073B E8 FFFFFCDA                     	CALL	_cons_putstr0
   835 00000740 59                              	POP	ECX
   836 00000741 5B                              	POP	EBX
   837 00000742 EB E2                           	JMP	L147
   838                                          [SECTION .data]
   839 00000063                                 LC9:
   840 00000063 48 61 72 69 00                  	DB	"Hari",0x00
   841 00000068                                 LC10:
   842 00000068 2E 68 72 62 20 66 69 6C 65 20   	DB	".hrb file format error.",0x0A,0x00
       00000072 66 6F 72 6D 61 74 20 65 72 72 
       0000007C 6F 72 2E 0A 00 
   843                                          [SECTION .text]
   844 00000744                                 	GLOBAL	_cmd_app
   845 00000744                                 _cmd_app:
   846 00000744 55                              	PUSH	EBP
   847 00000745 89 E5                           	MOV	EBP,ESP
   848 00000747 57                              	PUSH	EDI
   849 00000748 56                              	PUSH	ESI
   850 00000749 53                              	PUSH	EBX
   851 0000074A 31 DB                           	XOR	EBX,EBX
   852 0000074C 83 EC 3C                        	SUB	ESP,60
   853 0000074F 8B 75 10                        	MOV	ESI,DWORD [16+EBP]
   854 00000752 E8 [00000000]                   	CALL	_task_now
   855 00000757 89 45 C8                        	MOV	DWORD [-56+EBP],EAX
   856 0000075A                                 L154:
   857 0000075A 8A 04 33                        	MOV	AL,BYTE [EBX+ESI*1]
   858 0000075D 3C 20                           	CMP	AL,32
   859 0000075F 7E 0A                           	JLE	L150
   860 00000761 88 44 1D D4                     	MOV	BYTE [-44+EBP+EBX*1],AL
   861 00000765 43                              	INC	EBX
   862 00000766 83 FB 0C                        	CMP	EBX,12
   863 00000769 7E EF                           	JLE	L154
   864 0000076B                                 L150:
   865 0000076B 68 000000E0                     	PUSH	224
   866 00000770 8D 75 D4                        	LEA	ESI,DWORD [-44+EBP]
   867 00000773 68 00102600                     	PUSH	1058304
   868 00000778 56                              	PUSH	ESI
   869 00000779 C6 44 1D D4 00                  	MOV	BYTE [-44+EBP+EBX*1],0
   870 0000077E E8 [00000000]                   	CALL	_file_search
   871 00000783 83 C4 0C                        	ADD	ESP,12
   872 00000786 85 C0                           	TEST	EAX,EAX
   873 00000788 89 45 D0                        	MOV	DWORD [-48+EBP],EAX
   874 0000078B 0F 84 0000019E                  	JE	L176
   875 00000791                                 L175:
   876 00000791 8B 45 D0                        	MOV	EAX,DWORD [-48+EBP]
   877 00000794 FF 70 1C                        	PUSH	DWORD [28+EAX]
   878 00000797 68 003C0000                     	PUSH	3932160
   879 0000079C E8 [00000000]                   	CALL	_memman_alloc_4k
   880 000007A1 8B 55 D0                        	MOV	EDX,DWORD [-48+EBP]
   881 000007A4 68 00103E00                     	PUSH	1064448
   882 000007A9 FF 75 0C                        	PUSH	DWORD [12+EBP]
   883 000007AC 50                              	PUSH	EAX
   884 000007AD 89 45 B8                        	MOV	DWORD [-72+EBP],EAX
   885 000007B0 FF 72 1C                        	PUSH	DWORD [28+EDX]
   886 000007B3 0F B7 42 1A                     	MOVZX	EAX,WORD [26+EDX]
   887 000007B7 50                              	PUSH	EAX
   888 000007B8 E8 [00000000]                   	CALL	_file_loadfile
   889 000007BD 8B 7D D0                        	MOV	EDI,DWORD [-48+EBP]
   890 000007C0 83 C4 1C                        	ADD	ESP,28
   891 000007C3 83 7F 1C 23                     	CMP	DWORD [28+EDI],35
   892 000007C7 76 1F                           	JBE	L157
   893 000007C9 8B 75 B8                        	MOV	ESI,DWORD [-72+EBP]
   894 000007CC B8 [00000063]                   	MOV	EAX,LC9
   895 000007D1 FC                              	CLD
   896 000007D2 83 C6 04                        	ADD	ESI,4
   897 000007D5 B9 00000004                     	MOV	ECX,4
   898 000007DA 89 C7                           	MOV	EDI,EAX
   899 000007DC F3                              	REPE
   900 000007DD A6                              	CMPSB
   901 000007DE 75 08                           	JNE	L157
   902 000007E0 8B 45 B8                        	MOV	EAX,DWORD [-72+EBP]
   903 000007E3 80 38 00                        	CMP	BYTE [EAX],0
   904 000007E6 74 37                           	JE	L177
   905 000007E8                                 L157:
   906 000007E8 68 [00000068]                   	PUSH	LC10
   907 000007ED FF 75 08                        	PUSH	DWORD [8+EBP]
   908 000007F0 E8 FFFFFC25                     	CALL	_cons_putstr0
   909 000007F5 5F                              	POP	EDI
   910 000007F6 58                              	POP	EAX
   911 000007F7                                 L169:
   912 000007F7 8B 55 D0                        	MOV	EDX,DWORD [-48+EBP]
   913 000007FA FF 72 1C                        	PUSH	DWORD [28+EDX]
   914 000007FD FF 75 B8                        	PUSH	DWORD [-72+EBP]
   915 00000800 68 003C0000                     	PUSH	3932160
   916 00000805 E8 [00000000]                   	CALL	_memman_free_4k
   917 0000080A FF 75 08                        	PUSH	DWORD [8+EBP]
   918 0000080D E8 FFFFFB1C                     	CALL	_cons_newline
   919 00000812 B8 00000001                     	MOV	EAX,1
   920 00000817                                 L148:
   921 00000817 8D 65 F4                        	LEA	ESP,DWORD [-12+EBP]
   922 0000081A 5B                              	POP	EBX
   923 0000081B 5E                              	POP	ESI
   924 0000081C 5F                              	POP	EDI
   925 0000081D 5D                              	POP	EBP
   926 0000081E C3                              	RET
   927 0000081F                                 L177:
   928 0000081F 8B 10                           	MOV	EDX,DWORD [EAX]
   929 00000821 8B 78 0C                        	MOV	EDI,DWORD [12+EAX]
   930 00000824 8B 70 10                        	MOV	ESI,DWORD [16+EAX]
   931 00000827 89 55 C4                        	MOV	DWORD [-60+EBP],EDX
   932 0000082A 8B 40 14                        	MOV	EAX,DWORD [20+EAX]
   933 0000082D 89 7D C0                        	MOV	DWORD [-64+EBP],EDI
   934 00000830 52                              	PUSH	EDX
   935 00000831 89 45 BC                        	MOV	DWORD [-68+EBP],EAX
   936 00000834 68 003C0000                     	PUSH	3932160
   937 00000839 BB 00000008                     	MOV	EBX,8
   938 0000083E E8 [00000000]                   	CALL	_memman_alloc_4k
   939 00000843 8B 7D D0                        	MOV	EDI,DWORD [-48+EBP]
   940 00000846 8B 55 C8                        	MOV	EDX,DWORD [-56+EBP]
   941 00000849 89 45 CC                        	MOV	DWORD [-52+EBP],EAX
   942 0000084C 89 82 00000098                  	MOV	DWORD [152+EDX],EAX
   943 00000852 68 000040FA                     	PUSH	16634
   944 00000857 FF 75 B8                        	PUSH	DWORD [-72+EBP]
   945 0000085A 8B 47 1C                        	MOV	EAX,DWORD [28+EDI]
   946 0000085D 48                              	DEC	EAX
   947 0000085E 50                              	PUSH	EAX
   948 0000085F 8B 02                           	MOV	EAX,DWORD [EDX]
   949 00000861 99                              	CDQ
   950 00000862 F7 FB                           	IDIV	EBX
   951 00000864 8D 04 C5 00271F40               	LEA	EAX,DWORD [2563904+EAX*8]
   952 0000086B 50                              	PUSH	EAX
   953 0000086C E8 [00000000]                   	CALL	_set_segmdesc
   954 00000871 8B 55 C8                        	MOV	EDX,DWORD [-56+EBP]
   955 00000874 68 000040F2                     	PUSH	16626
   956 00000879 8B 45 C4                        	MOV	EAX,DWORD [-60+EBP]
   957 0000087C FF 75 CC                        	PUSH	DWORD [-52+EBP]
   958 0000087F 48                              	DEC	EAX
   959 00000880 50                              	PUSH	EAX
   960 00000881 8B 02                           	MOV	EAX,DWORD [EDX]
   961 00000883 99                              	CDQ
   962 00000884 F7 FB                           	IDIV	EBX
   963 00000886 8D 04 C5 00273E80               	LEA	EAX,DWORD [2571904+EAX*8]
   964 0000088D 50                              	PUSH	EAX
   965 0000088E E8 [00000000]                   	CALL	_set_segmdesc
   966 00000893 83 C4 28                        	ADD	ESP,40
   967 00000896 85 F6                           	TEST	ESI,ESI
   968 00000898 7E 17                           	JLE	L172
   969 0000089A 8B 4D C0                        	MOV	ECX,DWORD [-64+EBP]
   970 0000089D 8B 55 BC                        	MOV	EDX,DWORD [-68+EBP]
   971 000008A0 03 4D CC                        	ADD	ECX,DWORD [-52+EBP]
   972 000008A3 03 55 B8                        	ADD	EDX,DWORD [-72+EBP]
   973 000008A6 89 F3                           	MOV	EBX,ESI
   974 000008A8                                 L162:
   975 000008A8 8A 02                           	MOV	AL,BYTE [EDX]
   976 000008AA 42                              	INC	EDX
   977 000008AB 88 01                           	MOV	BYTE [ECX],AL
   978 000008AD 41                              	INC	ECX
   979 000008AE 4B                              	DEC	EBX
   980 000008AF 75 F7                           	JNE	L162
   981 000008B1                                 L172:
   982 000008B1 8B 45 C8                        	MOV	EAX,DWORD [-56+EBP]
   983 000008B4 8B 7D C8                        	MOV	EDI,DWORD [-56+EBP]
   984 000008B7 83 C0 30                        	ADD	EAX,48
   985 000008BA BB 000000FF                     	MOV	EBX,255
   986 000008BF 50                              	PUSH	EAX
   987 000008C0 8B 07                           	MOV	EAX,DWORD [EDI]
   988 000008C2 05 00003E80                     	ADD	EAX,16000
   989 000008C7 50                              	PUSH	EAX
   990 000008C8 FF 75 C0                        	PUSH	DWORD [-64+EBP]
   991 000008CB 8B 07                           	MOV	EAX,DWORD [EDI]
   992 000008CD 05 00001F40                     	ADD	EAX,8000
   993 000008D2 50                              	PUSH	EAX
   994 000008D3 6A 1B                           	PUSH	27
   995 000008D5 E8 [00000000]                   	CALL	_start_app
   996 000008DA 8B 35 00000FE4                  	MOV	ESI,DWORD [4068]
   997 000008E0 83 C4 14                        	ADD	ESP,20
   998 000008E3 81 C6 00000414                  	ADD	ESI,1044
   999 000008E9                                 L168:
  1000 000008E9 8B 46 1C                        	MOV	EAX,DWORD [28+ESI]
  1001 000008EC 83 E0 11                        	AND	EAX,17
  1002 000008EF 83 F8 11                        	CMP	EAX,17
  1003 000008F2 74 2A                           	JE	L178
  1004 000008F4                                 L165:
  1005 000008F4 83 C6 28                        	ADD	ESI,40
  1006 000008F7 4B                              	DEC	EBX
  1007 000008F8 79 EF                           	JNS	L168
  1008 000008FA 8B 45 C8                        	MOV	EAX,DWORD [-56+EBP]
  1009 000008FD 83 C0 10                        	ADD	EAX,16
  1010 00000900 50                              	PUSH	EAX
  1011 00000901 E8 [00000000]                   	CALL	_timer_cancelall
  1012 00000906 FF 75 C4                        	PUSH	DWORD [-60+EBP]
  1013 00000909 FF 75 CC                        	PUSH	DWORD [-52+EBP]
  1014 0000090C 68 003C0000                     	PUSH	3932160
  1015 00000911 E8 [00000000]                   	CALL	_memman_free_4k
  1016 00000916 83 C4 10                        	ADD	ESP,16
  1017 00000919 E9 FFFFFED9                     	JMP	L169
  1018 0000091E                                 L178:
  1019 0000091E 8B 45 C8                        	MOV	EAX,DWORD [-56+EBP]
  1020 00000921 39 46 24                        	CMP	DWORD [36+ESI],EAX
  1021 00000924 75 CE                           	JNE	L165
  1022 00000926 56                              	PUSH	ESI
  1023 00000927 E8 [00000000]                   	CALL	_sheet_free
  1024 0000092C 58                              	POP	EAX
  1025 0000092D EB C5                           	JMP	L165
  1026 0000092F                                 L176:
  1027 0000092F 80 7C 1D D3 2E                  	CMP	BYTE [-45+EBP+EBX*1],46
  1028 00000934 74 2F                           	JE	L155
  1029 00000936 68 000000E0                     	PUSH	224
  1030 0000093B 68 00102600                     	PUSH	1058304
  1031 00000940 56                              	PUSH	ESI
  1032 00000941 C6 44 1D D4 2E                  	MOV	BYTE [-44+EBP+EBX*1],46
  1033 00000946 C6 44 1D D5 48                  	MOV	BYTE [-43+EBP+EBX*1],72
  1034 0000094B C6 44 1D D6 52                  	MOV	BYTE [-42+EBP+EBX*1],82
  1035 00000950 C6 44 1D D7 42                  	MOV	BYTE [-41+EBP+EBX*1],66
  1036 00000955 C6 44 1D D8 00                  	MOV	BYTE [-40+EBP+EBX*1],0
  1037 0000095A E8 [00000000]                   	CALL	_file_search
  1038 0000095F 83 C4 0C                        	ADD	ESP,12
  1039 00000962 89 45 D0                        	MOV	DWORD [-48+EBP],EAX
  1040 00000965                                 L155:
  1041 00000965 83 7D D0 00                     	CMP	DWORD [-48+EBP],0
  1042 00000969 0F 85 FFFFFE22                  	JNE	L175
  1043 0000096F 31 C0                           	XOR	EAX,EAX
  1044 00000971 E9 FFFFFEA1                     	JMP	L148
  1045 00000976                                 	GLOBAL	_hrb_api
  1046 00000976                                 _hrb_api:
  1047 00000976 55                              	PUSH	EBP
  1048 00000977 89 E5                           	MOV	EBP,ESP
  1049 00000979 57                              	PUSH	EDI
  1050 0000097A 56                              	PUSH	ESI
  1051 0000097B 53                              	PUSH	EBX
  1052 0000097C 83 EC 10                        	SUB	ESP,16
  1053 0000097F 8B 5D 1C                        	MOV	EBX,DWORD [28+EBP]
  1054 00000982 E8 [00000000]                   	CALL	_task_now
  1055 00000987 8B 15 00000FE4                  	MOV	EDX,DWORD [4068]
  1056 0000098D 83 FB 01                        	CMP	EBX,1
  1057 00000990 89 45 F0                        	MOV	DWORD [-16+EBP],EAX
  1058 00000993 8B B8 00000098                  	MOV	EDI,DWORD [152+EAX]
  1059 00000999 8B 80 00000094                  	MOV	EAX,DWORD [148+EAX]
  1060 0000099F 89 55 E8                        	MOV	DWORD [-24+EBP],EDX
  1061 000009A2 89 45 EC                        	MOV	DWORD [-20+EBP],EAX
  1062 000009A5 0F 84 00000429                  	JE	L243
  1063 000009AB 83 FB 02                        	CMP	EBX,2
  1064 000009AE 0F 84 0000040D                  	JE	L244
  1065 000009B4 83 FB 03                        	CMP	EBX,3
  1066 000009B7 0F 84 000003EE                  	JE	L245
  1067 000009BD 83 FB 04                        	CMP	EBX,4
  1068 000009C0 0F 84 000003DA                  	JE	L246
  1069 000009C6 83 FB 05                        	CMP	EBX,5
  1070 000009C9 0F 84 00000355                  	JE	L247
  1071 000009CF 83 FB 06                        	CMP	EBX,6
  1072 000009D2 0F 84 00000301                  	JE	L248
  1073 000009D8 83 FB 07                        	CMP	EBX,7
  1074 000009DB 0F 84 000002CF                  	JE	L249
  1075 000009E1 83 FB 08                        	CMP	EBX,8
  1076 000009E4 0F 84 000002A3                  	JE	L250
  1077 000009EA 83 FB 09                        	CMP	EBX,9
  1078 000009ED 0F 84 0000027D                  	JE	L251
  1079 000009F3 83 FB 0A                        	CMP	EBX,10
  1080 000009F6 0F 84 00000257                  	JE	L252
  1081 000009FC 83 FB 0B                        	CMP	EBX,11
  1082 000009FF 0F 84 00000217                  	JE	L253
  1083 00000A05 83 FB 0C                        	CMP	EBX,12
  1084 00000A08 0F 84 000001FD                  	JE	L254
  1085 00000A0E 83 FB 0D                        	CMP	EBX,13
  1086 00000A11 0F 84 000001AB                  	JE	L255
  1087 00000A17 83 FB 0E                        	CMP	EBX,14
  1088 00000A1A 0F 84 00000195                  	JE	L256
  1089 00000A20 83 FB 0F                        	CMP	EBX,15
  1090 00000A23 0F 84 000000E9                  	JE	L213
  1091 00000A29 83 FB 10                        	CMP	EBX,16
  1092 00000A2C 0F 84 000000CF                  	JE	L257
  1093 00000A32 83 FB 11                        	CMP	EBX,17
  1094 00000A35 0F 84 000000A9                  	JE	L258
  1095 00000A3B 83 FB 12                        	CMP	EBX,18
  1096 00000A3E 0F 84 0000008E                  	JE	L259
  1097 00000A44 83 FB 13                        	CMP	EBX,19
  1098 00000A47 74 7B                           	JE	L260
  1099 00000A49 83 FB 14                        	CMP	EBX,20
  1100 00000A4C 74 0A                           	JE	L261
  1101 00000A4E                                 L181:
  1102 00000A4E 31 C0                           	XOR	EAX,EAX
  1103 00000A50                                 L179:
  1104 00000A50 8D 65 F4                        	LEA	ESP,DWORD [-12+EBP]
  1105 00000A53 5B                              	POP	EBX
  1106 00000A54 5E                              	POP	ESI
  1107 00000A55 5F                              	POP	EDI
  1108 00000A56 5D                              	POP	EBP
  1109 00000A57 C3                              	RET
  1110 00000A58                                 L261:
  1111 00000A58 8B 55 24                        	MOV	EDX,DWORD [36+EBP]
  1112 00000A5B 85 D2                           	TEST	EDX,EDX
  1113 00000A5D 75 19                           	JNE	L233
  1114 00000A5F 6A 61                           	PUSH	97
  1115 00000A61 E8 [00000000]                   	CALL	_io_in8
  1116 00000A66 89 C3                           	MOV	EBX,EAX
  1117 00000A68 83 E3 0D                        	AND	EBX,13
  1118 00000A6B 53                              	PUSH	EBX
  1119 00000A6C 6A 61                           	PUSH	97
  1120 00000A6E E8 [00000000]                   	CALL	_io_out8
  1121 00000A73                                 L235:
  1122 00000A73 83 C4 0C                        	ADD	ESP,12
  1123 00000A76 EB D6                           	JMP	L181
  1124 00000A78                                 L233:
  1125 00000A78 B9 471E7B60                     	MOV	ECX,1193180000
  1126 00000A7D 89 D6                           	MOV	ESI,EDX
  1127 00000A7F 89 C8                           	MOV	EAX,ECX
  1128 00000A81 68 000000B6                     	PUSH	182
  1129 00000A86 99                              	CDQ
  1130 00000A87 F7 FE                           	IDIV	ESI
  1131 00000A89 6A 43                           	PUSH	67
  1132 00000A8B 89 C3                           	MOV	EBX,EAX
  1133 00000A8D E8 [00000000]                   	CALL	_io_out8
  1134 00000A92 0F B6 C3                        	MOVZX	EAX,BL
  1135 00000A95 C1 FB 08                        	SAR	EBX,8
  1136 00000A98 50                              	PUSH	EAX
  1137 00000A99 6A 42                           	PUSH	66
  1138 00000A9B E8 [00000000]                   	CALL	_io_out8
  1139 00000AA0 53                              	PUSH	EBX
  1140 00000AA1 6A 42                           	PUSH	66
  1141 00000AA3 E8 [00000000]                   	CALL	_io_out8
  1142 00000AA8 6A 61                           	PUSH	97
  1143 00000AAA E8 [00000000]                   	CALL	_io_in8
  1144 00000AAF 89 C3                           	MOV	EBX,EAX
  1145 00000AB1 83 CB 03                        	OR	EBX,3
  1146 00000AB4 83 E3 0F                        	AND	EBX,15
  1147 00000AB7 53                              	PUSH	EBX
  1148 00000AB8 6A 61                           	PUSH	97
  1149 00000ABA E8 [00000000]                   	CALL	_io_out8
  1150 00000ABF 83 C4 24                        	ADD	ESP,36
  1151 00000AC2 EB 8A                           	JMP	L181
  1152 00000AC4                                 L260:
  1153 00000AC4 FF 75 18                        	PUSH	DWORD [24+EBP]
  1154 00000AC7 E8 [00000000]                   	CALL	_timer_free
  1155 00000ACC                                 L236:
  1156 00000ACC 58                              	POP	EAX
  1157 00000ACD E9 FFFFFF7C                     	JMP	L181
  1158 00000AD2                                 L259:
  1159 00000AD2 FF 75 24                        	PUSH	DWORD [36+EBP]
  1160 00000AD5 FF 75 18                        	PUSH	DWORD [24+EBP]
  1161 00000AD8 E8 [00000000]                   	CALL	_timer_settime
  1162 00000ADD                                 L238:
  1163 00000ADD 58                              	POP	EAX
  1164 00000ADE 5A                              	POP	EDX
  1165 00000ADF E9 FFFFFF6A                     	JMP	L181
  1166 00000AE4                                 L258:
  1167 00000AE4 8B 45 24                        	MOV	EAX,DWORD [36+EBP]
  1168 00000AE7 05 00000100                     	ADD	EAX,256
  1169 00000AEC 50                              	PUSH	EAX
  1170 00000AED 8B 45 F0                        	MOV	EAX,DWORD [-16+EBP]
  1171 00000AF0 83 C0 10                        	ADD	EAX,16
  1172 00000AF3 50                              	PUSH	EAX
  1173 00000AF4 FF 75 18                        	PUSH	DWORD [24+EBP]
  1174 00000AF7 E8 [00000000]                   	CALL	_timer_init
  1175 00000AFC E9 FFFFFF72                     	JMP	L235
  1176 00000B01                                 L257:
  1177 00000B01 E8 [00000000]                   	CALL	_timer_alloc
  1178 00000B06 89 45 44                        	MOV	DWORD [68+EBP],EAX
  1179 00000B09 C6 40 09 01                     	MOV	BYTE [9+EAX],1
  1180 00000B0D E9 FFFFFF3C                     	JMP	L181
  1181 00000B12                                 L213:
  1182 00000B12 E8 [00000000]                   	CALL	_io_cli
  1183 00000B17 8B 45 F0                        	MOV	EAX,DWORD [-16+EBP]
  1184 00000B1A 83 C0 10                        	ADD	EAX,16
  1185 00000B1D 50                              	PUSH	EAX
  1186 00000B1E E8 [00000000]                   	CALL	_fifo32_status
  1187 00000B23 5E                              	POP	ESI
  1188 00000B24 85 C0                           	TEST	EAX,EAX
  1189 00000B26 75 0F                           	JNE	L216
  1190 00000B28 83 7D 24 00                     	CMP	DWORD [36+EBP],0
  1191 00000B2C 74 76                           	JE	L217
  1192 00000B2E FF 75 F0                        	PUSH	DWORD [-16+EBP]
  1193 00000B31 E8 [00000000]                   	CALL	_task_sleep
  1194 00000B36 5B                              	POP	EBX
  1195 00000B37                                 L216:
  1196 00000B37 8B 75 F0                        	MOV	ESI,DWORD [-16+EBP]
  1197 00000B3A 83 C6 10                        	ADD	ESI,16
  1198 00000B3D 56                              	PUSH	ESI
  1199 00000B3E E8 [00000000]                   	CALL	_fifo32_get
  1200 00000B43 89 C3                           	MOV	EBX,EAX
  1201 00000B45 E8 [00000000]                   	CALL	_io_sti
  1202 00000B4A 59                              	POP	ECX
  1203 00000B4B 83 FB 01                        	CMP	EBX,1
  1204 00000B4E 7E 37                           	JLE	L262
  1205 00000B50                                 L219:
  1206 00000B50 83 FB 02                        	CMP	EBX,2
  1207 00000B53 74 26                           	JE	L263
  1208 00000B55                                 L220:
  1209 00000B55 83 FB 03                        	CMP	EBX,3
  1210 00000B58 74 15                           	JE	L264
  1211 00000B5A                                 L221:
  1212 00000B5A 8D 83 FFFFFF00                  	LEA	EAX,DWORD [-256+EBX]
  1213 00000B60 3D 000000FF                     	CMP	EAX,255
  1214 00000B65 77 AB                           	JA	L213
  1215 00000B67 89 45 44                        	MOV	DWORD [68+EBP],EAX
  1216 00000B6A E9 FFFFFEDF                     	JMP	L181
  1217 00000B6F                                 L264:
  1218 00000B6F 8B 55 EC                        	MOV	EDX,DWORD [-20+EBP]
  1219 00000B72 C7 42 0C FFFFFFFF               	MOV	DWORD [12+EDX],-1
  1220 00000B79 EB DF                           	JMP	L221
  1221 00000B7B                                 L263:
  1222 00000B7B 8B 45 EC                        	MOV	EAX,DWORD [-20+EBP]
  1223 00000B7E C7 40 0C 00000007               	MOV	DWORD [12+EAX],7
  1224 00000B85 EB CE                           	JMP	L220
  1225 00000B87                                 L262:
  1226 00000B87 6A 01                           	PUSH	1
  1227 00000B89 56                              	PUSH	ESI
  1228 00000B8A 8B 75 EC                        	MOV	ESI,DWORD [-20+EBP]
  1229 00000B8D FF 76 10                        	PUSH	DWORD [16+ESI]
  1230 00000B90 E8 [00000000]                   	CALL	_timer_init
  1231 00000B95 6A 32                           	PUSH	50
  1232 00000B97 FF 76 10                        	PUSH	DWORD [16+ESI]
  1233 00000B9A E8 [00000000]                   	CALL	_timer_settime
  1234 00000B9F 83 C4 14                        	ADD	ESP,20
  1235 00000BA2 EB AC                           	JMP	L219
  1236 00000BA4                                 L217:
  1237 00000BA4 E8 [00000000]                   	CALL	_io_sti
  1238 00000BA9 C7 45 44 FFFFFFFF               	MOV	DWORD [68+EBP],-1
  1239 00000BB0 E9 FFFFFE99                     	JMP	L181
  1240 00000BB5                                 L256:
  1241 00000BB5 FF 75 18                        	PUSH	DWORD [24+EBP]
  1242 00000BB8 E8 [00000000]                   	CALL	_sheet_free
  1243 00000BBD E9 FFFFFF0A                     	JMP	L236
  1244 00000BC2                                 L255:
  1245 00000BC2 FF 75 10                        	PUSH	DWORD [16+EBP]
  1246 00000BC5 FF 75 08                        	PUSH	DWORD [8+EBP]
  1247 00000BC8 FF 75 0C                        	PUSH	DWORD [12+EBP]
  1248 00000BCB FF 75 20                        	PUSH	DWORD [32+EBP]
  1249 00000BCE 8B 75 18                        	MOV	ESI,DWORD [24+EBP]
  1250 00000BD1 FF 75 24                        	PUSH	DWORD [36+EBP]
  1251 00000BD4 83 E6 FE                        	AND	ESI,-2
  1252 00000BD7 56                              	PUSH	ESI
  1253 00000BD8 E8 0000029D                     	CALL	_hrb_api_linewin
  1254 00000BDD 83 C4 18                        	ADD	ESP,24
  1255 00000BE0                                 L242:
  1256 00000BE0 F7 45 18 00000001               	TEST	DWORD [24+EBP],1
  1257 00000BE7 0F 85 FFFFFE61                  	JNE	L181
  1258 00000BED 8B 45 08                        	MOV	EAX,DWORD [8+EBP]
  1259 00000BF0 40                              	INC	EAX
  1260 00000BF1 50                              	PUSH	EAX
  1261 00000BF2 8B 45 0C                        	MOV	EAX,DWORD [12+EBP]
  1262 00000BF5 40                              	INC	EAX
  1263 00000BF6 50                              	PUSH	EAX
  1264 00000BF7 FF 75 20                        	PUSH	DWORD [32+EBP]
  1265 00000BFA FF 75 24                        	PUSH	DWORD [36+EBP]
  1266 00000BFD                                 L240:
  1267 00000BFD 56                              	PUSH	ESI
  1268 00000BFE                                 L237:
  1269 00000BFE E8 [00000000]                   	CALL	_sheet_refresh
  1270 00000C03                                 L239:
  1271 00000C03 83 C4 14                        	ADD	ESP,20
  1272 00000C06 E9 FFFFFE43                     	JMP	L181
  1273 00000C0B                                 L254:
  1274 00000C0B FF 75 08                        	PUSH	DWORD [8+EBP]
  1275 00000C0E FF 75 0C                        	PUSH	DWORD [12+EBP]
  1276 00000C11 FF 75 20                        	PUSH	DWORD [32+EBP]
  1277 00000C14 FF 75 24                        	PUSH	DWORD [36+EBP]
  1278 00000C17 FF 75 18                        	PUSH	DWORD [24+EBP]
  1279 00000C1A EB E2                           	JMP	L237
  1280 00000C1C                                 L253:
  1281 00000C1C 8B 75 18                        	MOV	ESI,DWORD [24+EBP]
  1282 00000C1F 8B 45 08                        	MOV	EAX,DWORD [8+EBP]
  1283 00000C22 83 E6 FE                        	AND	ESI,-2
  1284 00000C25 8A 55 24                        	MOV	DL,BYTE [36+EBP]
  1285 00000C28 0F AF 46 04                     	IMUL	EAX,DWORD [4+ESI]
  1286 00000C2C 03 45 0C                        	ADD	EAX,DWORD [12+EBP]
  1287 00000C2F 8B 0E                           	MOV	ECX,DWORD [ESI]
  1288 00000C31 88 14 08                        	MOV	BYTE [EAX+ECX*1],DL
  1289 00000C34 F7 45 18 00000001               	TEST	DWORD [24+EBP],1
  1290 00000C3B 0F 85 FFFFFE0D                  	JNE	L181
  1291 00000C41 8B 45 08                        	MOV	EAX,DWORD [8+EBP]
  1292 00000C44 40                              	INC	EAX
  1293 00000C45 50                              	PUSH	EAX
  1294 00000C46 8B 45 0C                        	MOV	EAX,DWORD [12+EBP]
  1295 00000C49 40                              	INC	EAX
  1296 00000C4A 50                              	PUSH	EAX
  1297 00000C4B FF 75 08                        	PUSH	DWORD [8+EBP]
  1298 00000C4E FF 75 0C                        	PUSH	DWORD [12+EBP]
  1299 00000C51 EB AA                           	JMP	L240
  1300 00000C53                                 L252:
  1301 00000C53 8B 45 20                        	MOV	EAX,DWORD [32+EBP]
  1302 00000C56 83 C0 0F                        	ADD	EAX,15
  1303 00000C59 83 E0 F0                        	AND	EAX,-16
  1304 00000C5C 50                              	PUSH	EAX
  1305 00000C5D 8B 45 18                        	MOV	EAX,DWORD [24+EBP]
  1306 00000C60 FF 75 24                        	PUSH	DWORD [36+EBP]
  1307 00000C63 01 F8                           	ADD	EAX,EDI
  1308 00000C65 50                              	PUSH	EAX
  1309 00000C66 E8 [00000000]                   	CALL	_memman_free
  1310 00000C6B E9 FFFFFE03                     	JMP	L235
  1311 00000C70                                 L251:
  1312 00000C70 8B 45 20                        	MOV	EAX,DWORD [32+EBP]
  1313 00000C73 83 C0 0F                        	ADD	EAX,15
  1314 00000C76 83 E0 F0                        	AND	EAX,-16
  1315 00000C79 50                              	PUSH	EAX
  1316 00000C7A 8B 45 18                        	MOV	EAX,DWORD [24+EBP]
  1317 00000C7D 01 F8                           	ADD	EAX,EDI
  1318 00000C7F 50                              	PUSH	EAX
  1319 00000C80 E8 [00000000]                   	CALL	_memman_alloc
  1320 00000C85 89 45 44                        	MOV	DWORD [68+EBP],EAX
  1321 00000C88 E9 FFFFFE50                     	JMP	L238
  1322 00000C8D                                 L250:
  1323 00000C8D 8B 5D 18                        	MOV	EBX,DWORD [24+EBP]
  1324 00000C90 01 FB                           	ADD	EBX,EDI
  1325 00000C92 53                              	PUSH	EBX
  1326 00000C93 E8 [00000000]                   	CALL	_memman_init
  1327 00000C98 83 65 20 F0                     	AND	DWORD [32+EBP],-16
  1328 00000C9C FF 75 20                        	PUSH	DWORD [32+EBP]
  1329 00000C9F FF 75 24                        	PUSH	DWORD [36+EBP]
  1330 00000CA2 53                              	PUSH	EBX
  1331 00000CA3 E8 [00000000]                   	CALL	_memman_free
  1332 00000CA8 83 C4 10                        	ADD	ESP,16
  1333 00000CAB E9 FFFFFD9E                     	JMP	L181
  1334 00000CB0                                 L249:
  1335 00000CB0 FF 75 08                        	PUSH	DWORD [8+EBP]
  1336 00000CB3 FF 75 0C                        	PUSH	DWORD [12+EBP]
  1337 00000CB6 FF 75 20                        	PUSH	DWORD [32+EBP]
  1338 00000CB9 8B 75 18                        	MOV	ESI,DWORD [24+EBP]
  1339 00000CBC FF 75 24                        	PUSH	DWORD [36+EBP]
  1340 00000CBF 83 E6 FE                        	AND	ESI,-2
  1341 00000CC2 0F B6 45 10                     	MOVZX	EAX,BYTE [16+EBP]
  1342 00000CC6 50                              	PUSH	EAX
  1343 00000CC7 FF 76 04                        	PUSH	DWORD [4+ESI]
  1344 00000CCA FF 36                           	PUSH	DWORD [ESI]
  1345 00000CCC E8 [00000000]                   	CALL	_boxfill8
  1346 00000CD1 83 C4 1C                        	ADD	ESP,28
  1347 00000CD4 E9 FFFFFF07                     	JMP	L242
  1348 00000CD9                                 L248:
  1349 00000CD9 8B 45 10                        	MOV	EAX,DWORD [16+EBP]
  1350 00000CDC 8B 75 18                        	MOV	ESI,DWORD [24+EBP]
  1351 00000CDF 01 F8                           	ADD	EAX,EDI
  1352 00000CE1 83 E6 FE                        	AND	ESI,-2
  1353 00000CE4 50                              	PUSH	EAX
  1354 00000CE5 0F BE 45 24                     	MOVSX	EAX,BYTE [36+EBP]
  1355 00000CE9 50                              	PUSH	EAX
  1356 00000CEA FF 75 08                        	PUSH	DWORD [8+EBP]
  1357 00000CED FF 75 0C                        	PUSH	DWORD [12+EBP]
  1358 00000CF0 FF 76 04                        	PUSH	DWORD [4+ESI]
  1359 00000CF3 FF 36                           	PUSH	DWORD [ESI]
  1360 00000CF5 E8 [00000000]                   	CALL	_putfonts8_asc
  1361 00000CFA 83 C4 18                        	ADD	ESP,24
  1362 00000CFD F7 45 18 00000001               	TEST	DWORD [24+EBP],1
  1363 00000D04 0F 85 FFFFFD44                  	JNE	L181
  1364 00000D0A 8B 4D 0C                        	MOV	ECX,DWORD [12+EBP]
  1365 00000D0D 8B 45 08                        	MOV	EAX,DWORD [8+EBP]
  1366 00000D10 8B 55 20                        	MOV	EDX,DWORD [32+EBP]
  1367 00000D13 83 C0 10                        	ADD	EAX,16
  1368 00000D16 50                              	PUSH	EAX
  1369 00000D17 8D 04 D1                        	LEA	EAX,DWORD [ECX+EDX*8]
  1370 00000D1A 50                              	PUSH	EAX
  1371 00000D1B FF 75 08                        	PUSH	DWORD [8+EBP]
  1372 00000D1E 51                              	PUSH	ECX
  1373 00000D1F E9 FFFFFED9                     	JMP	L240
  1374 00000D24                                 L247:
  1375 00000D24 FF 75 E8                        	PUSH	DWORD [-24+EBP]
  1376 00000D27 E8 [00000000]                   	CALL	_sheet_alloc
  1377 00000D2C 8B 5D 18                        	MOV	EBX,DWORD [24+EBP]
  1378 00000D2F 8B 4D F0                        	MOV	ECX,DWORD [-16+EBP]
  1379 00000D32 01 FB                           	ADD	EBX,EDI
  1380 00000D34 89 48 24                        	MOV	DWORD [36+EAX],ECX
  1381 00000D37 89 C6                           	MOV	ESI,EAX
  1382 00000D39 83 48 1C 10                     	OR	DWORD [28+EAX],16
  1383 00000D3D FF 75 24                        	PUSH	DWORD [36+EBP]
  1384 00000D40 FF 75 08                        	PUSH	DWORD [8+EBP]
  1385 00000D43 FF 75 0C                        	PUSH	DWORD [12+EBP]
  1386 00000D46 53                              	PUSH	EBX
  1387 00000D47 50                              	PUSH	EAX
  1388 00000D48 E8 [00000000]                   	CALL	_sheet_setbuf
  1389 00000D4D 8B 45 20                        	MOV	EAX,DWORD [32+EBP]
  1390 00000D50 6A 00                           	PUSH	0
  1391 00000D52 01 F8                           	ADD	EAX,EDI
  1392 00000D54 50                              	PUSH	EAX
  1393 00000D55 FF 75 08                        	PUSH	DWORD [8+EBP]
  1394 00000D58 FF 75 0C                        	PUSH	DWORD [12+EBP]
  1395 00000D5B 53                              	PUSH	EBX
  1396 00000D5C BB 00000002                     	MOV	EBX,2
  1397 00000D61 E8 [00000000]                   	CALL	_make_window
  1398 00000D66 8B 4D E8                        	MOV	ECX,DWORD [-24+EBP]
  1399 00000D69 8B 55 E8                        	MOV	EDX,DWORD [-24+EBP]
  1400 00000D6C 83 C4 2C                        	ADD	ESP,44
  1401 00000D6F 8B 42 0C                        	MOV	EAX,DWORD [12+EDX]
  1402 00000D72 2B 45 08                        	SUB	EAX,DWORD [8+EBP]
  1403 00000D75 99                              	CDQ
  1404 00000D76 F7 FB                           	IDIV	EBX
  1405 00000D78 50                              	PUSH	EAX
  1406 00000D79 8B 41 08                        	MOV	EAX,DWORD [8+ECX]
  1407 00000D7C 2B 45 0C                        	SUB	EAX,DWORD [12+EBP]
  1408 00000D7F 99                              	CDQ
  1409 00000D80 F7 FB                           	IDIV	EBX
  1410 00000D82 83 E0 FC                        	AND	EAX,-4
  1411 00000D85 50                              	PUSH	EAX
  1412 00000D86 56                              	PUSH	ESI
  1413 00000D87 E8 [00000000]                   	CALL	_sheet_slide
  1414 00000D8C 8B 45 E8                        	MOV	EAX,DWORD [-24+EBP]
  1415 00000D8F FF 70 10                        	PUSH	DWORD [16+EAX]
  1416 00000D92 56                              	PUSH	ESI
  1417 00000D93 E8 [00000000]                   	CALL	_sheet_updown
  1418 00000D98 89 75 44                        	MOV	DWORD [68+EBP],ESI
  1419 00000D9B E9 FFFFFE63                     	JMP	L239
  1420 00000DA0                                 L246:
  1421 00000DA0 8B 45 F0                        	MOV	EAX,DWORD [-16+EBP]
  1422 00000DA3 83 C0 30                        	ADD	EAX,48
  1423 00000DA6 E9 FFFFFCA5                     	JMP	L179
  1424 00000DAB                                 L245:
  1425 00000DAB 8B 45 18                        	MOV	EAX,DWORD [24+EBP]
  1426 00000DAE FF 75 20                        	PUSH	DWORD [32+EBP]
  1427 00000DB1 01 F8                           	ADD	EAX,EDI
  1428 00000DB3 50                              	PUSH	EAX
  1429 00000DB4 FF 75 EC                        	PUSH	DWORD [-20+EBP]
  1430 00000DB7 E8 FFFFF68C                     	CALL	_cons_putstr1
  1431 00000DBC E9 FFFFFCB2                     	JMP	L235
  1432 00000DC1                                 L244:
  1433 00000DC1 8B 45 18                        	MOV	EAX,DWORD [24+EBP]
  1434 00000DC4 01 F8                           	ADD	EAX,EDI
  1435 00000DC6 50                              	PUSH	EAX
  1436 00000DC7 FF 75 EC                        	PUSH	DWORD [-20+EBP]
  1437 00000DCA E8 FFFFF64B                     	CALL	_cons_putstr0
  1438 00000DCF E9 FFFFFD09                     	JMP	L238
  1439 00000DD4                                 L243:
  1440 00000DD4 6A 01                           	PUSH	1
  1441 00000DD6 0F B6 45 24                     	MOVZX	EAX,BYTE [36+EBP]
  1442 00000DDA 50                              	PUSH	EAX
  1443 00000DDB FF 75 EC                        	PUSH	DWORD [-20+EBP]
  1444 00000DDE E8 FFFFF47E                     	CALL	_cons_putchar
  1445 00000DE3 E9 FFFFFC8B                     	JMP	L235
  1446                                          [SECTION .data]
  1447 00000081                                 LC11:
  1448 00000081 0A 49 4E 54 20 30 43 20 3A 0A   	DB	0x0A,"INT 0C :",0x0A," Stack Exception.",0x0A,0x00
       0000008B 20 53 74 61 63 6B 20 45 78 63 
       00000095 65 70 74 69 6F 6E 2E 0A 00 
  1449 0000009E                                 LC12:
  1450 0000009E 45 49 50 20 3D 20 25 30 38 58   	DB	"EIP = %08X",0x0A,0x00
       000000A8 0A 00 
  1451                                          [SECTION .text]
  1452 00000DE8                                 	GLOBAL	_inthandler0c
  1453 00000DE8                                 _inthandler0c:
  1454 00000DE8 55                              	PUSH	EBP
  1455 00000DE9 89 E5                           	MOV	EBP,ESP
  1456 00000DEB 57                              	PUSH	EDI
  1457 00000DEC 56                              	PUSH	ESI
  1458 00000DED 53                              	PUSH	EBX
  1459 00000DEE 8D 5D D4                        	LEA	EBX,DWORD [-44+EBP]
  1460 00000DF1 83 EC 20                        	SUB	ESP,32
  1461 00000DF4 E8 [00000000]                   	CALL	_task_now
  1462 00000DF9 89 C6                           	MOV	ESI,EAX
  1463 00000DFB 8B B8 00000094                  	MOV	EDI,DWORD [148+EAX]
  1464 00000E01 83 C6 30                        	ADD	ESI,48
  1465 00000E04 68 [00000081]                   	PUSH	LC11
  1466 00000E09 57                              	PUSH	EDI
  1467 00000E0A E8 FFFFF60B                     	CALL	_cons_putstr0
  1468 00000E0F 8B 45 08                        	MOV	EAX,DWORD [8+EBP]
  1469 00000E12 FF 70 2C                        	PUSH	DWORD [44+EAX]
  1470 00000E15 68 [0000009E]                   	PUSH	LC12
  1471 00000E1A 53                              	PUSH	EBX
  1472 00000E1B E8 [00000000]                   	CALL	_sprintf
  1473 00000E20 53                              	PUSH	EBX
  1474 00000E21 57                              	PUSH	EDI
  1475 00000E22 E8 FFFFF5F3                     	CALL	_cons_putstr0
  1476 00000E27 8D 65 F4                        	LEA	ESP,DWORD [-12+EBP]
  1477 00000E2A 5B                              	POP	EBX
  1478 00000E2B 89 F0                           	MOV	EAX,ESI
  1479 00000E2D 5E                              	POP	ESI
  1480 00000E2E 5F                              	POP	EDI
  1481 00000E2F 5D                              	POP	EBP
  1482 00000E30 C3                              	RET
  1483                                          [SECTION .data]
  1484 000000AA                                 LC13:
  1485 000000AA 0A 49 4E 54 20 30 44 20 3A 0A   	DB	0x0A,"INT 0D :",0x0A," General Protected Exception.",0x0A,0x00
       000000B4 20 47 65 6E 65 72 61 6C 20 50 
       000000BE 72 6F 74 65 63 74 65 64 20 45 
       000000C8 78 63 65 70 74 69 6F 6E 2E 0A 
       000000D2 00 
  1486                                          [SECTION .text]
  1487 00000E31                                 	GLOBAL	_inthandler0d
  1488 00000E31                                 _inthandler0d:
  1489 00000E31 55                              	PUSH	EBP
  1490 00000E32 89 E5                           	MOV	EBP,ESP
  1491 00000E34 57                              	PUSH	EDI
  1492 00000E35 56                              	PUSH	ESI
  1493 00000E36 53                              	PUSH	EBX
  1494 00000E37 8D 5D D4                        	LEA	EBX,DWORD [-44+EBP]
  1495 00000E3A 83 EC 20                        	SUB	ESP,32
  1496 00000E3D E8 [00000000]                   	CALL	_task_now
  1497 00000E42 89 C6                           	MOV	ESI,EAX
  1498 00000E44 8B B8 00000094                  	MOV	EDI,DWORD [148+EAX]
  1499 00000E4A 83 C6 30                        	ADD	ESI,48
  1500 00000E4D 68 [000000AA]                   	PUSH	LC13
  1501 00000E52 57                              	PUSH	EDI
  1502 00000E53 E8 FFFFF5C2                     	CALL	_cons_putstr0
  1503 00000E58 8B 45 08                        	MOV	EAX,DWORD [8+EBP]
  1504 00000E5B FF 70 2C                        	PUSH	DWORD [44+EAX]
  1505 00000E5E 68 [0000009E]                   	PUSH	LC12
  1506 00000E63 53                              	PUSH	EBX
  1507 00000E64 E8 [00000000]                   	CALL	_sprintf
  1508 00000E69 53                              	PUSH	EBX
  1509 00000E6A 57                              	PUSH	EDI
  1510 00000E6B E8 FFFFF5AA                     	CALL	_cons_putstr0
  1511 00000E70 8D 65 F4                        	LEA	ESP,DWORD [-12+EBP]
  1512 00000E73 5B                              	POP	EBX
  1513 00000E74 89 F0                           	MOV	EAX,ESI
  1514 00000E76 5E                              	POP	ESI
  1515 00000E77 5F                              	POP	EDI
  1516 00000E78 5D                              	POP	EBP
  1517 00000E79 C3                              	RET
  1518 00000E7A                                 	GLOBAL	_hrb_api_linewin
  1519 00000E7A                                 _hrb_api_linewin:
  1520 00000E7A 55                              	PUSH	EBP
  1521 00000E7B 89 E5                           	MOV	EBP,ESP
  1522 00000E7D 57                              	PUSH	EDI
  1523 00000E7E 56                              	PUSH	ESI
  1524 00000E7F 53                              	PUSH	EBX
  1525 00000E80 83 EC 0C                        	SUB	ESP,12
  1526 00000E83 8B 5D 0C                        	MOV	EBX,DWORD [12+EBP]
  1527 00000E86 8B 45 14                        	MOV	EAX,DWORD [20+EBP]
  1528 00000E89 89 D9                           	MOV	ECX,EBX
  1529 00000E8B 8B 55 18                        	MOV	EDX,DWORD [24+EBP]
  1530 00000E8E C1 E1 0A                        	SAL	ECX,10
  1531 00000E91 89 D7                           	MOV	EDI,EDX
  1532 00000E93 89 4D F0                        	MOV	DWORD [-16+EBP],ECX
  1533 00000E96 89 C6                           	MOV	ESI,EAX
  1534 00000E98 8B 4D 10                        	MOV	ECX,DWORD [16+EBP]
  1535 00000E9B 2B 7D 10                        	SUB	EDI,DWORD [16+EBP]
  1536 00000E9E C1 E1 0A                        	SAL	ECX,10
  1537 00000EA1 29 DE                           	SUB	ESI,EBX
  1538 00000EA3 89 4D EC                        	MOV	DWORD [-20+EBP],ECX
  1539 00000EA6 0F 88 000000A3                  	JS	L289
  1540 00000EAC                                 L268:
  1541 00000EAC 85 FF                           	TEST	EDI,EDI
  1542 00000EAE 0F 88 00000094                  	JS	L290
  1543 00000EB4                                 L269:
  1544 00000EB4 39 FE                           	CMP	ESI,EDI
  1545 00000EB6 7C 62                           	JL	L270
  1546 00000EB8 8D 4E 01                        	LEA	ECX,DWORD [1+ESI]
  1547 00000EBB 39 C3                           	CMP	EBX,EAX
  1548 00000EBD BE FFFFFC00                     	MOV	ESI,-1024
  1549 00000EC2 7F 05                           	JG	L272
  1550 00000EC4 BE 00000400                     	MOV	ESI,1024
  1551 00000EC9                                 L272:
  1552 00000EC9 39 55 10                        	CMP	DWORD [16+EBP],EDX
  1553 00000ECC 7F 46                           	JG	L273
  1554 00000ECE 2B 55 10                        	SUB	EDX,DWORD [16+EBP]
  1555 00000ED1 42                              	INC	EDX
  1556 00000ED2                                 L288:
  1557 00000ED2 C1 E2 0A                        	SAL	EDX,10
  1558 00000ED5 89 D0                           	MOV	EAX,EDX
  1559 00000ED7 99                              	CDQ
  1560 00000ED8 F7 F9                           	IDIV	ECX
  1561 00000EDA 89 C7                           	MOV	EDI,EAX
  1562 00000EDC                                 L275:
  1563 00000EDC 85 C9                           	TEST	ECX,ECX
  1564 00000EDE 7E 2C                           	JLE	L286
  1565 00000EE0 89 CB                           	MOV	EBX,ECX
  1566 00000EE2                                 L284:
  1567 00000EE2 8B 55 08                        	MOV	EDX,DWORD [8+EBP]
  1568 00000EE5 8B 45 EC                        	MOV	EAX,DWORD [-20+EBP]
  1569 00000EE8 C1 F8 0A                        	SAR	EAX,10
  1570 00000EEB 8B 4D F0                        	MOV	ECX,DWORD [-16+EBP]
  1571 00000EEE 0F AF 42 04                     	IMUL	EAX,DWORD [4+EDX]
  1572 00000EF2 C1 F9 0A                        	SAR	ECX,10
  1573 00000EF5 89 4D E8                        	MOV	DWORD [-24+EBP],ECX
  1574 00000EF8 8B 0A                           	MOV	ECX,DWORD [EDX]
  1575 00000EFA 03 45 E8                        	ADD	EAX,DWORD [-24+EBP]
  1576 00000EFD 8A 55 1C                        	MOV	DL,BYTE [28+EBP]
  1577 00000F00 88 14 08                        	MOV	BYTE [EAX+ECX*1],DL
  1578 00000F03 01 75 F0                        	ADD	DWORD [-16+EBP],ESI
  1579 00000F06 01 7D EC                        	ADD	DWORD [-20+EBP],EDI
  1580 00000F09 4B                              	DEC	EBX
  1581 00000F0A 75 D6                           	JNE	L284
  1582 00000F0C                                 L286:
  1583 00000F0C 83 C4 0C                        	ADD	ESP,12
  1584 00000F0F 5B                              	POP	EBX
  1585 00000F10 5E                              	POP	ESI
  1586 00000F11 5F                              	POP	EDI
  1587 00000F12 5D                              	POP	EBP
  1588 00000F13 C3                              	RET
  1589 00000F14                                 L273:
  1590 00000F14 2B 55 10                        	SUB	EDX,DWORD [16+EBP]
  1591 00000F17 4A                              	DEC	EDX
  1592 00000F18 EB B8                           	JMP	L288
  1593 00000F1A                                 L270:
  1594 00000F1A 8D 4F 01                        	LEA	ECX,DWORD [1+EDI]
  1595 00000F1D 39 55 10                        	CMP	DWORD [16+EBP],EDX
  1596 00000F20 BF FFFFFC00                     	MOV	EDI,-1024
  1597 00000F25 7F 05                           	JG	L277
  1598 00000F27 BF 00000400                     	MOV	EDI,1024
  1599 00000F2C                                 L277:
  1600 00000F2C 39 C3                           	CMP	EBX,EAX
  1601 00000F2E 7F 11                           	JG	L278
  1602 00000F30 29 D8                           	SUB	EAX,EBX
  1603 00000F32 8D 50 01                        	LEA	EDX,DWORD [1+EAX]
  1604 00000F35                                 L287:
  1605 00000F35 C1 E2 0A                        	SAL	EDX,10
  1606 00000F38 89 D0                           	MOV	EAX,EDX
  1607 00000F3A 99                              	CDQ
  1608 00000F3B F7 F9                           	IDIV	ECX
  1609 00000F3D 89 C6                           	MOV	ESI,EAX
  1610 00000F3F EB 9B                           	JMP	L275
  1611 00000F41                                 L278:
  1612 00000F41 29 D8                           	SUB	EAX,EBX
  1613 00000F43 8D 50 FF                        	LEA	EDX,DWORD [-1+EAX]
  1614 00000F46 EB ED                           	JMP	L287
  1615 00000F48                                 L290:
  1616 00000F48 F7 DF                           	NEG	EDI
  1617 00000F4A E9 FFFFFF65                     	JMP	L269
  1618 00000F4F                                 L289:
  1619 00000F4F F7 DE                           	NEG	ESI
  1620 00000F51 E9 FFFFFF56                     	JMP	L268
